; ModuleID = 'main.bc'
source_filename = "main.cpp"
target datalayout = "e-m:e-i64:64-f80:128-n8:16:32:64-S128"
target triple = "x86_64-unknown-linux-gnu"

%"class.std::ios_base::Init" = type { i8 }
%struct._IO_FILE = type { i32, i8*, i8*, i8*, i8*, i8*, i8*, i8*, i8*, i8*, i8*, i8*, %struct._IO_marker*, %struct._IO_FILE*, i32, i32, i64, i16, i8, [1 x i8], i8*, i64, i8*, i8*, i8*, i8*, i64, i32, [20 x i8] }
%struct._IO_marker = type { %struct._IO_marker*, %struct._IO_FILE*, i32 }
%"struct.std::piecewise_construct_t" = type { i8 }
%struct.Params = type { i32, i32, i32, i32, i32, i32, i8* }
%struct.OpenCLSetup = type { %struct._cl_context*, %struct._cl_command_queue*, %struct._cl_program*, %struct._cl_kernel*, %struct._cl_kernel*, %struct._cl_kernel*, %struct._cl_device_id* }
%struct._cl_context = type opaque
%struct._cl_command_queue = type opaque
%struct._cl_program = type opaque
%struct._cl_kernel = type opaque
%struct._cl_device_id = type opaque
%struct.Timer = type { %"class.std::map", %"class.std::map", %"class.std::map" }
%"class.std::map" = type { %"class.std::_Rb_tree" }
%"class.std::_Rb_tree" = type { %"struct.std::_Rb_tree<std::__cxx11::basic_string<char>, std::pair<const std::__cxx11::basic_string<char>, double>, std::_Select1st<std::pair<const std::__cxx11::basic_string<char>, double> >, std::less<std::__cxx11::basic_string<char> >, std::allocator<std::pair<const std::__cxx11::basic_string<char>, double> > >::_Rb_tree_impl" }
%"struct.std::_Rb_tree<std::__cxx11::basic_string<char>, std::pair<const std::__cxx11::basic_string<char>, double>, std::_Select1st<std::pair<const std::__cxx11::basic_string<char>, double> >, std::less<std::__cxx11::basic_string<char> >, std::allocator<std::pair<const std::__cxx11::basic_string<char>, double> > >::_Rb_tree_impl" = type { %"struct.std::less", %"struct.std::_Rb_tree_node_base", i64 }
%"struct.std::less" = type { i8 }
%"struct.std::_Rb_tree_node_base" = type { i32, %"struct.std::_Rb_tree_node_base"*, %"struct.std::_Rb_tree_node_base"*, %"struct.std::_Rb_tree_node_base"* }
%"class.std::__cxx11::basic_string" = type { %"struct.std::__cxx11::basic_string<char, std::char_traits<char>, std::allocator<char> >::_Alloc_hider", i64, %union.anon }
%"struct.std::__cxx11::basic_string<char, std::char_traits<char>, std::allocator<char> >::_Alloc_hider" = type { i8* }
%union.anon = type { i64, [8 x i8] }
%"class.std::allocator.0" = type { i8 }
%struct._cl_mem = type opaque
%struct._cl_event = type opaque
%struct._cl_platform_id = type opaque
%"class.std::allocator" = type { i8 }
%"class.__gnu_cxx::new_allocator" = type { i8 }
%"struct.std::_Rb_tree_const_iterator" = type { %"struct.std::_Rb_tree_node_base"* }
%"struct.std::_Rb_tree_iterator" = type { %"struct.std::_Rb_tree_node_base"* }
%"class.std::tuple" = type { %"struct.std::_Tuple_impl" }
%"struct.std::_Tuple_impl" = type { %"struct.std::_Head_base" }
%"struct.std::_Head_base" = type { %"class.std::__cxx11::basic_string"* }
%"class.std::tuple.3" = type { i8 }
%"struct.std::pair" = type { %"class.std::__cxx11::basic_string", double }
%"struct.std::_Rb_tree_node" = type { %"struct.std::_Rb_tree_node_base", %"struct.__gnu_cxx::__aligned_membuf" }
%"struct.__gnu_cxx::__aligned_membuf" = type { [40 x i8] }
%"struct.std::_Select1st" = type { i8 }
%"struct.std::pair.4" = type { %"struct.std::_Rb_tree_node_base"*, %"struct.std::_Rb_tree_node_base"* }
%"struct.std::_Index_tuple" = type { i8 }
%"struct.std::_Index_tuple.5" = type { i8 }

$_ZN6ParamsC2EiPPc = comdat any

$_ZN11OpenCLSetupC2Eii = comdat any

$_ZN5TimerC2Ev = comdat any

$_ZN5Timer5startENSt7__cxx1112basic_stringIcSt11char_traitsIcESaIcEEE = comdat any

$_ZN5Timer4stopENSt7__cxx1112basic_stringIcSt11char_traitsIcESaIcEEE = comdat any

$_ZN5Timer5printENSt7__cxx1112basic_stringIcSt11char_traitsIcESaIcEEEi = comdat any

$_ZN11OpenCLSetup7releaseEv = comdat any

$_ZN5TimerD2Ev = comdat any

$_ZNSt3mapINSt7__cxx1112basic_stringIcSt11char_traitsIcESaIcEEEdSt4lessIS5_ESaISt4pairIKS5_dEEEC2Ev = comdat any

$_ZNSt8_Rb_treeINSt7__cxx1112basic_stringIcSt11char_traitsIcESaIcEEESt4pairIKS5_dESt10_Select1stIS8_ESt4lessIS5_ESaIS8_EEC2Ev = comdat any

$__clang_call_terminate = comdat any

$_ZNSt8_Rb_treeINSt7__cxx1112basic_stringIcSt11char_traitsIcESaIcEEESt4pairIKS5_dESt10_Select1stIS8_ESt4lessIS5_ESaIS8_EE13_Rb_tree_implISC_Lb1EEC2Ev = comdat any

$_ZNSaISt13_Rb_tree_nodeISt4pairIKNSt7__cxx1112basic_stringIcSt11char_traitsIcESaIcEEEdEEEC2Ev = comdat any

$_ZNSt8_Rb_treeINSt7__cxx1112basic_stringIcSt11char_traitsIcESaIcEEESt4pairIKS5_dESt10_Select1stIS8_ESt4lessIS5_ESaIS8_EE13_Rb_tree_implISC_Lb1EE13_M_initializeEv = comdat any

$_ZNSaISt13_Rb_tree_nodeISt4pairIKNSt7__cxx1112basic_stringIcSt11char_traitsIcESaIcEEEdEEED2Ev = comdat any

$_ZN9__gnu_cxx13new_allocatorISt13_Rb_tree_nodeISt4pairIKNSt7__cxx1112basic_stringIcSt11char_traitsIcESaIcEEEdEEEC2Ev = comdat any

$_ZN9__gnu_cxx13new_allocatorISt13_Rb_tree_nodeISt4pairIKNSt7__cxx1112basic_stringIcSt11char_traitsIcESaIcEEEdEEED2Ev = comdat any

$_ZNKSt3mapINSt7__cxx1112basic_stringIcSt11char_traitsIcESaIcEEEdSt4lessIS5_ESaISt4pairIKS5_dEEE5countERS9_ = comdat any

$_ZNSt3mapINSt7__cxx1112basic_stringIcSt11char_traitsIcESaIcEEEdSt4lessIS5_ESaISt4pairIKS5_dEEEixERS9_ = comdat any

$_ZNKSt8_Rb_treeINSt7__cxx1112basic_stringIcSt11char_traitsIcESaIcEEESt4pairIKS5_dESt10_Select1stIS8_ESt4lessIS5_ESaIS8_EE4findERS7_ = comdat any

$_ZNKSt23_Rb_tree_const_iteratorISt4pairIKNSt7__cxx1112basic_stringIcSt11char_traitsIcESaIcEEEdEEeqERKS9_ = comdat any

$_ZNKSt8_Rb_treeINSt7__cxx1112basic_stringIcSt11char_traitsIcESaIcEEESt4pairIKS5_dESt10_Select1stIS8_ESt4lessIS5_ESaIS8_EE3endEv = comdat any

$_ZNKSt8_Rb_treeINSt7__cxx1112basic_stringIcSt11char_traitsIcESaIcEEESt4pairIKS5_dESt10_Select1stIS8_ESt4lessIS5_ESaIS8_EE14_M_lower_boundEPKSt13_Rb_tree_nodeIS8_ESI_RS7_ = comdat any

$_ZNKSt8_Rb_treeINSt7__cxx1112basic_stringIcSt11char_traitsIcESaIcEEESt4pairIKS5_dESt10_Select1stIS8_ESt4lessIS5_ESaIS8_EE8_M_beginEv = comdat any

$_ZNKSt8_Rb_treeINSt7__cxx1112basic_stringIcSt11char_traitsIcESaIcEEESt4pairIKS5_dESt10_Select1stIS8_ESt4lessIS5_ESaIS8_EE6_M_endEv = comdat any

$_ZNKSt4lessINSt7__cxx1112basic_stringIcSt11char_traitsIcESaIcEEEEclERKS5_S8_ = comdat any

$_ZNSt8_Rb_treeINSt7__cxx1112basic_stringIcSt11char_traitsIcESaIcEEESt4pairIKS5_dESt10_Select1stIS8_ESt4lessIS5_ESaIS8_EE6_S_keyEPKSt18_Rb_tree_node_base = comdat any

$_ZNSt8_Rb_treeINSt7__cxx1112basic_stringIcSt11char_traitsIcESaIcEEESt4pairIKS5_dESt10_Select1stIS8_ESt4lessIS5_ESaIS8_EE6_S_keyEPKSt13_Rb_tree_nodeIS8_E = comdat any

$_ZNSt8_Rb_treeINSt7__cxx1112basic_stringIcSt11char_traitsIcESaIcEEESt4pairIKS5_dESt10_Select1stIS8_ESt4lessIS5_ESaIS8_EE7_S_leftEPKSt18_Rb_tree_node_base = comdat any

$_ZNSt8_Rb_treeINSt7__cxx1112basic_stringIcSt11char_traitsIcESaIcEEESt4pairIKS5_dESt10_Select1stIS8_ESt4lessIS5_ESaIS8_EE8_S_rightEPKSt18_Rb_tree_node_base = comdat any

$_ZNSt23_Rb_tree_const_iteratorISt4pairIKNSt7__cxx1112basic_stringIcSt11char_traitsIcESaIcEEEdEEC2EPKSt18_Rb_tree_node_base = comdat any

$_ZNKSt10_Select1stISt4pairIKNSt7__cxx1112basic_stringIcSt11char_traitsIcESaIcEEEdEEclERKS8_ = comdat any

$_ZNSt8_Rb_treeINSt7__cxx1112basic_stringIcSt11char_traitsIcESaIcEEESt4pairIKS5_dESt10_Select1stIS8_ESt4lessIS5_ESaIS8_EE8_S_valueEPKSt13_Rb_tree_nodeIS8_E = comdat any

$_ZNKSt13_Rb_tree_nodeISt4pairIKNSt7__cxx1112basic_stringIcSt11char_traitsIcESaIcEEEdEE9_M_valptrEv = comdat any

$_ZNK9__gnu_cxx16__aligned_membufISt4pairIKNSt7__cxx1112basic_stringIcSt11char_traitsIcESaIcEEEdEE6_M_ptrEv = comdat any

$_ZNK9__gnu_cxx16__aligned_membufISt4pairIKNSt7__cxx1112basic_stringIcSt11char_traitsIcESaIcEEEdEE7_M_addrEv = comdat any

$_ZStltIcSt11char_traitsIcESaIcEEbRKNSt7__cxx1112basic_stringIT_T0_T1_EESA_ = comdat any

$_ZNSt8_Rb_treeINSt7__cxx1112basic_stringIcSt11char_traitsIcESaIcEEESt4pairIKS5_dESt10_Select1stIS8_ESt4lessIS5_ESaIS8_EE8_S_valueEPKSt18_Rb_tree_node_base = comdat any

$_ZNSt3mapINSt7__cxx1112basic_stringIcSt11char_traitsIcESaIcEEEdSt4lessIS5_ESaISt4pairIKS5_dEEE11lower_boundERS9_ = comdat any

$_ZNKSt17_Rb_tree_iteratorISt4pairIKNSt7__cxx1112basic_stringIcSt11char_traitsIcESaIcEEEdEEeqERKS9_ = comdat any

$_ZNSt3mapINSt7__cxx1112basic_stringIcSt11char_traitsIcESaIcEEEdSt4lessIS5_ESaISt4pairIKS5_dEEE3endEv = comdat any

$_ZNKSt3mapINSt7__cxx1112basic_stringIcSt11char_traitsIcESaIcEEEdSt4lessIS5_ESaISt4pairIKS5_dEEE8key_compEv = comdat any

$_ZNKSt17_Rb_tree_iteratorISt4pairIKNSt7__cxx1112basic_stringIcSt11char_traitsIcESaIcEEEdEEdeEv = comdat any

$_ZNSt8_Rb_treeINSt7__cxx1112basic_stringIcSt11char_traitsIcESaIcEEESt4pairIKS5_dESt10_Select1stIS8_ESt4lessIS5_ESaIS8_EE22_M_emplace_hint_uniqueIJRKSt21piecewise_construct_tSt5tupleIJRS7_EESJ_IJEEEEESt17_Rb_tree_iteratorIS8_ESt23_Rb_tree_const_iteratorIS8_EDpOT_ = comdat any

$_ZNSt23_Rb_tree_const_iteratorISt4pairIKNSt7__cxx1112basic_stringIcSt11char_traitsIcESaIcEEEdEEC2ERKSt17_Rb_tree_iteratorIS8_E = comdat any

$_ZNSt5tupleIJRKNSt7__cxx1112basic_stringIcSt11char_traitsIcESaIcEEEEEC2ES7_ = comdat any

$_ZNSt8_Rb_treeINSt7__cxx1112basic_stringIcSt11char_traitsIcESaIcEEESt4pairIKS5_dESt10_Select1stIS8_ESt4lessIS5_ESaIS8_EE11lower_boundERS7_ = comdat any

$_ZNSt8_Rb_treeINSt7__cxx1112basic_stringIcSt11char_traitsIcESaIcEEESt4pairIKS5_dESt10_Select1stIS8_ESt4lessIS5_ESaIS8_EE14_M_lower_boundEPSt13_Rb_tree_nodeIS8_ESH_RS7_ = comdat any

$_ZNSt8_Rb_treeINSt7__cxx1112basic_stringIcSt11char_traitsIcESaIcEEESt4pairIKS5_dESt10_Select1stIS8_ESt4lessIS5_ESaIS8_EE8_M_beginEv = comdat any

$_ZNSt8_Rb_treeINSt7__cxx1112basic_stringIcSt11char_traitsIcESaIcEEESt4pairIKS5_dESt10_Select1stIS8_ESt4lessIS5_ESaIS8_EE6_M_endEv = comdat any

$_ZNSt8_Rb_treeINSt7__cxx1112basic_stringIcSt11char_traitsIcESaIcEEESt4pairIKS5_dESt10_Select1stIS8_ESt4lessIS5_ESaIS8_EE7_S_leftEPSt18_Rb_tree_node_base = comdat any

$_ZNSt8_Rb_treeINSt7__cxx1112basic_stringIcSt11char_traitsIcESaIcEEESt4pairIKS5_dESt10_Select1stIS8_ESt4lessIS5_ESaIS8_EE8_S_rightEPSt18_Rb_tree_node_base = comdat any

$_ZNSt17_Rb_tree_iteratorISt4pairIKNSt7__cxx1112basic_stringIcSt11char_traitsIcESaIcEEEdEEC2EPSt18_Rb_tree_node_base = comdat any

$_ZNSt8_Rb_treeINSt7__cxx1112basic_stringIcSt11char_traitsIcESaIcEEESt4pairIKS5_dESt10_Select1stIS8_ESt4lessIS5_ESaIS8_EE3endEv = comdat any

$_ZNKSt8_Rb_treeINSt7__cxx1112basic_stringIcSt11char_traitsIcESaIcEEESt4pairIKS5_dESt10_Select1stIS8_ESt4lessIS5_ESaIS8_EE8key_compEv = comdat any

$_ZNSt13_Rb_tree_nodeISt4pairIKNSt7__cxx1112basic_stringIcSt11char_traitsIcESaIcEEEdEE9_M_valptrEv = comdat any

$_ZN9__gnu_cxx16__aligned_membufISt4pairIKNSt7__cxx1112basic_stringIcSt11char_traitsIcESaIcEEEdEE6_M_ptrEv = comdat any

$_ZN9__gnu_cxx16__aligned_membufISt4pairIKNSt7__cxx1112basic_stringIcSt11char_traitsIcESaIcEEEdEE7_M_addrEv = comdat any

$_ZNSt8_Rb_treeINSt7__cxx1112basic_stringIcSt11char_traitsIcESaIcEEESt4pairIKS5_dESt10_Select1stIS8_ESt4lessIS5_ESaIS8_EE14_M_create_nodeIJRKSt21piecewise_construct_tSt5tupleIJRS7_EESJ_IJEEEEEPSt13_Rb_tree_nodeIS8_EDpOT_ = comdat any

$_ZSt7forwardIRKSt21piecewise_construct_tEOT_RNSt16remove_referenceIS3_E4typeE = comdat any

$_ZSt7forwardISt5tupleIJRKNSt7__cxx1112basic_stringIcSt11char_traitsIcESaIcEEEEEEOT_RNSt16remove_referenceISA_E4typeE = comdat any

$_ZSt7forwardISt5tupleIJEEEOT_RNSt16remove_referenceIS2_E4typeE = comdat any

$_ZNSt8_Rb_treeINSt7__cxx1112basic_stringIcSt11char_traitsIcESaIcEEESt4pairIKS5_dESt10_Select1stIS8_ESt4lessIS5_ESaIS8_EE29_M_get_insert_hint_unique_posESt23_Rb_tree_const_iteratorIS8_ERS7_ = comdat any

$_ZNSt8_Rb_treeINSt7__cxx1112basic_stringIcSt11char_traitsIcESaIcEEESt4pairIKS5_dESt10_Select1stIS8_ESt4lessIS5_ESaIS8_EE14_M_insert_nodeEPSt18_Rb_tree_node_baseSG_PSt13_Rb_tree_nodeIS8_E = comdat any

$_ZNSt8_Rb_treeINSt7__cxx1112basic_stringIcSt11char_traitsIcESaIcEEESt4pairIKS5_dESt10_Select1stIS8_ESt4lessIS5_ESaIS8_EE12_M_drop_nodeEPSt13_Rb_tree_nodeIS8_E = comdat any

$_ZNSt8_Rb_treeINSt7__cxx1112basic_stringIcSt11char_traitsIcESaIcEEESt4pairIKS5_dESt10_Select1stIS8_ESt4lessIS5_ESaIS8_EE11_M_get_nodeEv = comdat any

$_ZNSt8_Rb_treeINSt7__cxx1112basic_stringIcSt11char_traitsIcESaIcEEESt4pairIKS5_dESt10_Select1stIS8_ESt4lessIS5_ESaIS8_EE17_M_construct_nodeIJRKSt21piecewise_construct_tSt5tupleIJRS7_EESJ_IJEEEEEvPSt13_Rb_tree_nodeIS8_EDpOT_ = comdat any

$_ZNSt16allocator_traitsISaISt13_Rb_tree_nodeISt4pairIKNSt7__cxx1112basic_stringIcSt11char_traitsIcESaIcEEEdEEEE8allocateERSB_m = comdat any

$_ZNSt8_Rb_treeINSt7__cxx1112basic_stringIcSt11char_traitsIcESaIcEEESt4pairIKS5_dESt10_Select1stIS8_ESt4lessIS5_ESaIS8_EE21_M_get_Node_allocatorEv = comdat any

$_ZN9__gnu_cxx13new_allocatorISt13_Rb_tree_nodeISt4pairIKNSt7__cxx1112basic_stringIcSt11char_traitsIcESaIcEEEdEEE8allocateEmPKv = comdat any

$_ZNK9__gnu_cxx13new_allocatorISt13_Rb_tree_nodeISt4pairIKNSt7__cxx1112basic_stringIcSt11char_traitsIcESaIcEEEdEEE8max_sizeEv = comdat any

$_ZNSt16allocator_traitsISaISt13_Rb_tree_nodeISt4pairIKNSt7__cxx1112basic_stringIcSt11char_traitsIcESaIcEEEdEEEE9constructIS9_JRKSt21piecewise_construct_tSt5tupleIJRS8_EESH_IJEEEEEvRSB_PT_DpOT0_ = comdat any

$_ZNSt8_Rb_treeINSt7__cxx1112basic_stringIcSt11char_traitsIcESaIcEEESt4pairIKS5_dESt10_Select1stIS8_ESt4lessIS5_ESaIS8_EE11_M_put_nodeEPSt13_Rb_tree_nodeIS8_E = comdat any

$_ZN9__gnu_cxx13new_allocatorISt13_Rb_tree_nodeISt4pairIKNSt7__cxx1112basic_stringIcSt11char_traitsIcESaIcEEEdEEE9constructISA_JRKSt21piecewise_construct_tSt5tupleIJRS9_EESH_IJEEEEEvPT_DpOT0_ = comdat any

$_ZNSt5tupleIJRKNSt7__cxx1112basic_stringIcSt11char_traitsIcESaIcEEEEEC2EOS8_ = comdat any

$_ZNSt4pairIKNSt7__cxx1112basic_stringIcSt11char_traitsIcESaIcEEEdEC2IJRS6_EJEEESt21piecewise_construct_tSt5tupleIJDpT_EESB_IJDpT0_EE = comdat any

$_ZNSt11_Tuple_implILm0EJRKNSt7__cxx1112basic_stringIcSt11char_traitsIcESaIcEEEEEC2EOS8_ = comdat any

$_ZSt7forwardIRKNSt7__cxx1112basic_stringIcSt11char_traitsIcESaIcEEEEOT_RNSt16remove_referenceIS8_E4typeE = comdat any

$_ZNSt11_Tuple_implILm0EJRKNSt7__cxx1112basic_stringIcSt11char_traitsIcESaIcEEEEE7_M_headERS8_ = comdat any

$_ZNSt10_Head_baseILm0ERKNSt7__cxx1112basic_stringIcSt11char_traitsIcESaIcEEELb0EEC2ES7_ = comdat any

$_ZNSt10_Head_baseILm0ERKNSt7__cxx1112basic_stringIcSt11char_traitsIcESaIcEEELb0EE7_M_headERS8_ = comdat any

$_ZNSt4pairIKNSt7__cxx1112basic_stringIcSt11char_traitsIcESaIcEEEdEC2IJRS6_EJLm0EEJEJEEERSt5tupleIJDpT_EERSA_IJDpT1_EESt12_Index_tupleIJXspT0_EEESJ_IJXspT2_EEE = comdat any

$_ZSt3getILm0EJRKNSt7__cxx1112basic_stringIcSt11char_traitsIcESaIcEEEEERNSt13tuple_elementIXT_ESt5tupleIJDpT0_EEE4typeERSC_ = comdat any

$_ZSt12__get_helperILm0ERKNSt7__cxx1112basic_stringIcSt11char_traitsIcESaIcEEEJEERT0_RSt11_Tuple_implIXT_EJS8_DpT1_EE = comdat any

$_ZNSt16allocator_traitsISaISt13_Rb_tree_nodeISt4pairIKNSt7__cxx1112basic_stringIcSt11char_traitsIcESaIcEEEdEEEE10deallocateERSB_PSA_m = comdat any

$_ZN9__gnu_cxx13new_allocatorISt13_Rb_tree_nodeISt4pairIKNSt7__cxx1112basic_stringIcSt11char_traitsIcESaIcEEEdEEE10deallocateEPSB_m = comdat any

$_ZNKSt23_Rb_tree_const_iteratorISt4pairIKNSt7__cxx1112basic_stringIcSt11char_traitsIcESaIcEEEdEE13_M_const_castEv = comdat any

$_ZNKSt8_Rb_treeINSt7__cxx1112basic_stringIcSt11char_traitsIcESaIcEEESt4pairIKS5_dESt10_Select1stIS8_ESt4lessIS5_ESaIS8_EE4sizeEv = comdat any

$_ZNSt8_Rb_treeINSt7__cxx1112basic_stringIcSt11char_traitsIcESaIcEEESt4pairIKS5_dESt10_Select1stIS8_ESt4lessIS5_ESaIS8_EE12_M_rightmostEv = comdat any

$_ZNSt4pairIPSt18_Rb_tree_node_baseS1_EC2IRS1_vEERKS1_OT_ = comdat any

$_ZNSt8_Rb_treeINSt7__cxx1112basic_stringIcSt11char_traitsIcESaIcEEESt4pairIKS5_dESt10_Select1stIS8_ESt4lessIS5_ESaIS8_EE24_M_get_insert_unique_posERS7_ = comdat any

$_ZNSt8_Rb_treeINSt7__cxx1112basic_stringIcSt11char_traitsIcESaIcEEESt4pairIKS5_dESt10_Select1stIS8_ESt4lessIS5_ESaIS8_EE11_M_leftmostEv = comdat any

$_ZNSt4pairIPSt18_Rb_tree_node_baseS1_EC2IRS1_S4_vEEOT_OT0_ = comdat any

$_ZNSt17_Rb_tree_iteratorISt4pairIKNSt7__cxx1112basic_stringIcSt11char_traitsIcESaIcEEEdEEmmEv = comdat any

$_ZNSt17_Rb_tree_iteratorISt4pairIKNSt7__cxx1112basic_stringIcSt11char_traitsIcESaIcEEEdEEppEv = comdat any

$_ZNSt4pairIPSt18_Rb_tree_node_baseS1_EC2IRS1_vEEOT_RKS1_ = comdat any

$_ZSt7forwardIRPSt18_Rb_tree_node_baseEOT_RNSt16remove_referenceIS3_E4typeE = comdat any

$_ZNSt8_Rb_treeINSt7__cxx1112basic_stringIcSt11char_traitsIcESaIcEEESt4pairIKS5_dESt10_Select1stIS8_ESt4lessIS5_ESaIS8_EE5beginEv = comdat any

$_ZNSt4pairIPSt18_Rb_tree_node_baseS1_EC2IRPSt13_Rb_tree_nodeIS_IKNSt7__cxx1112basic_stringIcSt11char_traitsIcESaIcEEEdEESF_vEEOT_OT0_ = comdat any

$_ZSt7forwardIRPSt13_Rb_tree_nodeISt4pairIKNSt7__cxx1112basic_stringIcSt11char_traitsIcESaIcEEEdEEEOT_RNSt16remove_referenceISD_E4typeE = comdat any

$_ZNSt8_Rb_treeINSt7__cxx1112basic_stringIcSt11char_traitsIcESaIcEEESt4pairIKS5_dESt10_Select1stIS8_ESt4lessIS5_ESaIS8_EE15_M_destroy_nodeEPSt13_Rb_tree_nodeIS8_E = comdat any

$_ZNSt16allocator_traitsISaISt13_Rb_tree_nodeISt4pairIKNSt7__cxx1112basic_stringIcSt11char_traitsIcESaIcEEEdEEEE7destroyIS9_EEvRSB_PT_ = comdat any

$_ZN9__gnu_cxx13new_allocatorISt13_Rb_tree_nodeISt4pairIKNSt7__cxx1112basic_stringIcSt11char_traitsIcESaIcEEEdEEE7destroyISA_EEvPT_ = comdat any

$_ZNSt4pairIKNSt7__cxx1112basic_stringIcSt11char_traitsIcESaIcEEEdED2Ev = comdat any

$_ZNSt11_Tuple_implILm0EJRKNSt7__cxx1112basic_stringIcSt11char_traitsIcESaIcEEEEEC2ES7_ = comdat any

$_ZNSt3mapINSt7__cxx1112basic_stringIcSt11char_traitsIcESaIcEEEdSt4lessIS5_ESaISt4pairIKS5_dEEED2Ev = comdat any

$_ZNSt8_Rb_treeINSt7__cxx1112basic_stringIcSt11char_traitsIcESaIcEEESt4pairIKS5_dESt10_Select1stIS8_ESt4lessIS5_ESaIS8_EED2Ev = comdat any

$_ZNSt8_Rb_treeINSt7__cxx1112basic_stringIcSt11char_traitsIcESaIcEEESt4pairIKS5_dESt10_Select1stIS8_ESt4lessIS5_ESaIS8_EE8_M_eraseEPSt13_Rb_tree_nodeIS8_E = comdat any

$_ZNSt8_Rb_treeINSt7__cxx1112basic_stringIcSt11char_traitsIcESaIcEEESt4pairIKS5_dESt10_Select1stIS8_ESt4lessIS5_ESaIS8_EE13_Rb_tree_implISC_Lb1EED2Ev = comdat any

@_ZStL8__ioinit = internal global %"class.std::ios_base::Init" zeroinitializer, align 1
@__dso_handle = external hidden global i8
@.str = private unnamed_addr constant [11 x i8] c"Allocation\00", align 1
@stderr = external dso_local global %struct._IO_FILE*, align 8
@.str.1 = private unnamed_addr constant [29 x i8] c"OpenCL error: %d\0A at %s, %d\0A\00", align 1
@.str.2 = private unnamed_addr constant [9 x i8] c"main.cpp\00", align 1
@.str.3 = private unnamed_addr constant [15 x i8] c"Initialization\00", align 1
@.str.4 = private unnamed_addr constant [2 x i8] c"r\00", align 1
@.str.5 = private unnamed_addr constant [18 x i8] c"can not open file\00", align 1
@.str.6 = private unnamed_addr constant [3 x i8] c"%d\00", align 1
@.str.7 = private unnamed_addr constant [15 x i8] c"Copy To Device\00", align 1
@.str.8 = private unnamed_addr constant [12 x i8] c"Kernel-FPGA\00", align 1
@.str.9 = private unnamed_addr constant [18 x i8] c"Scan Large Arrays\00", align 1
@.str.10 = private unnamed_addr constant [11 x i8] c"Prefix Sum\00", align 1
@.str.11 = private unnamed_addr constant [15 x i8] c"Block Addition\00", align 1
@.str.12 = private unnamed_addr constant [20 x i8] c"Copy Back and Merge\00", align 1
@.str.13 = private unnamed_addr constant [13 x i8] c"\0ATest failed\00", align 1
@.str.14 = private unnamed_addr constant [16 x i8] c"\0ATest failed,%d\00", align 1
@.str.15 = private unnamed_addr constant [13 x i8] c"\0ATest passed\00", align 1
@.str.16 = private unnamed_addr constant [13 x i8] c"Deallocation\00", align 1
@.str.17 = private unnamed_addr constant [17 x i8] c"input/input3.txt\00", align 1
@.str.18 = private unnamed_addr constant [14 x i8] c"Intel(R) FPGA\00", align 1
@.str.19 = private unnamed_addr constant [54 x i8] c"ERROR: Unable to find Intel(R) FPGA OpenCL platform.\0A\00", align 1
@.str.20 = private unnamed_addr constant [16 x i8] c"./support/ocl.h\00", align 1
@.str.21 = private unnamed_addr constant [14 x i8] c"Platform: %s\0A\00", align 1
@.str.22 = private unnamed_addr constant [20 x i8] c"Using %d device(s)\0A\00", align 1
@.str.23 = private unnamed_addr constant [6 x i8] c"  %s\0A\00", align 1
@.str.24 = private unnamed_addr constant [4 x i8] c"%s\09\00", align 1
@.str.25 = private unnamed_addr constant [11 x i8] c"baseline_2\00", align 1
@.str.26 = private unnamed_addr constant [16 x i8] c"\0AUsing AOCX:%s\0A\00", align 1
@.str.27 = private unnamed_addr constant [4 x i8] c"-I.\00", align 1
@.str.28 = private unnamed_addr constant [1 x i8] zeroinitializer, align 1
@.str.29 = private unnamed_addr constant [23 x i8] c"ScanLargeArrays_kernel\00", align 1
@.str.30 = private unnamed_addr constant [17 x i8] c"prefixSum_kernel\00", align 1
@.str.31 = private unnamed_addr constant [21 x i8] c"blockAddition_kernel\00", align 1
@_ZStL19piecewise_construct = internal constant %"struct.std::piecewise_construct_t" undef, align 1
@.str.32 = private unnamed_addr constant [21 x i8] c"\0A%s Time (ms): %0.3f\00", align 1
@llvm.global_ctors = appending global [1 x { i32, void ()*, i8* }] [{ i32, void ()*, i8* } { i32 65535, void ()* @_GLOBAL__sub_I_main.cpp, i8* null }]

; Function Attrs: noinline uwtable
define internal void @__cxx_global_var_init() #0 section ".text.startup" {
entry:
  call void @_ZNSt8ios_base4InitC1Ev(%"class.std::ios_base::Init"* @_ZStL8__ioinit)
  %0 = call i32 @__cxa_atexit(void (i8*)* bitcast (void (%"class.std::ios_base::Init"*)* @_ZNSt8ios_base4InitD1Ev to void (i8*)*), i8* getelementptr inbounds (%"class.std::ios_base::Init", %"class.std::ios_base::Init"* @_ZStL8__ioinit, i32 0, i32 0), i8* @__dso_handle) #3
  ret void
}

declare dso_local void @_ZNSt8ios_base4InitC1Ev(%"class.std::ios_base::Init"*) unnamed_addr #1

; Function Attrs: nounwind
declare dso_local void @_ZNSt8ios_base4InitD1Ev(%"class.std::ios_base::Init"*) unnamed_addr #2

; Function Attrs: nounwind
declare dso_local i32 @__cxa_atexit(void (i8*)*, i8*, i8*) #3

; Function Attrs: noinline norecurse optnone uwtable
define dso_local i32 @main(i32 %argc, i8** %argv) #4 personality i8* bitcast (i32 (...)* @__gxx_personality_v0 to i8*) {
entry:
  %retval = alloca i32, align 4
  %argc.addr = alloca i32, align 4
  %argv.addr = alloca i8**, align 8
  %p = alloca %struct.Params, align 8
  %ocl = alloca %struct.OpenCLSetup, align 8
  %clStatus = alloca i32, align 4
  %timer = alloca %struct.Timer, align 8
  %agg.tmp = alloca %"class.std::__cxx11::basic_string", align 8
  %ref.tmp = alloca %"class.std::allocator.0", align 1
  %exn.slot = alloca i8*
  %ehselector.slot = alloca i32
  %in_size = alloca i32, align 4
  %block_size = alloca i32, align 4
  %h_input = alloca i32*, align 8
  %h_output = alloca i32*, align 8
  %h_out_ref = alloca i32*, align 8
  %h_sum_buf = alloca i32*, align 8
  %h_sum_buf_2 = alloca i32*, align 8
  %d_input = alloca %struct._cl_mem*, align 8
  %d_output = alloca %struct._cl_mem*, align 8
  %d_sum_buf = alloca %struct._cl_mem*, align 8
  %d_sum_buf_2 = alloca %struct._cl_mem*, align 8
  %agg.tmp47 = alloca %"class.std::__cxx11::basic_string", align 8
  %ref.tmp48 = alloca %"class.std::allocator.0", align 1
  %agg.tmp55 = alloca %"class.std::__cxx11::basic_string", align 8
  %ref.tmp56 = alloca %"class.std::allocator.0", align 1
  %agg.tmp63 = alloca %"class.std::__cxx11::basic_string", align 8
  %ref.tmp64 = alloca %"class.std::allocator.0", align 1
  %temp = alloca i32, align 4
  %fp = alloca %struct._IO_FILE*, align 8
  %i = alloca i32, align 4
  %agg.tmp84 = alloca %"class.std::__cxx11::basic_string", align 8
  %ref.tmp85 = alloca %"class.std::allocator.0", align 1
  %agg.tmp92 = alloca %"class.std::__cxx11::basic_string", align 8
  %ref.tmp93 = alloca %"class.std::allocator.0", align 1
  %agg.tmp100 = alloca %"class.std::__cxx11::basic_string", align 8
  %ref.tmp101 = alloca %"class.std::allocator.0", align 1
  %agg.tmp121 = alloca %"class.std::__cxx11::basic_string", align 8
  %ref.tmp122 = alloca %"class.std::allocator.0", align 1
  %agg.tmp129 = alloca %"class.std::__cxx11::basic_string", align 8
  %ref.tmp130 = alloca %"class.std::allocator.0", align 1
  %rep = alloca i32, align 4
  %agg.tmp143 = alloca %"class.std::__cxx11::basic_string", align 8
  %ref.tmp144 = alloca %"class.std::allocator.0", align 1
  %ls = alloca [1 x i64], align 8
  %gs = alloca [1 x i64], align 8
  %ls2 = alloca [1 x i64], align 8
  %gs2 = alloca [1 x i64], align 8
  %agg.tmp170 = alloca %"class.std::__cxx11::basic_string", align 8
  %ref.tmp171 = alloca %"class.std::allocator.0", align 1
  %agg.tmp206 = alloca %"class.std::__cxx11::basic_string", align 8
  %ref.tmp207 = alloca %"class.std::allocator.0", align 1
  %agg.tmp218 = alloca %"class.std::__cxx11::basic_string", align 8
  %ref.tmp219 = alloca %"class.std::allocator.0", align 1
  %agg.tmp253 = alloca %"class.std::__cxx11::basic_string", align 8
  %ref.tmp254 = alloca %"class.std::allocator.0", align 1
  %agg.tmp265 = alloca %"class.std::__cxx11::basic_string", align 8
  %ref.tmp266 = alloca %"class.std::allocator.0", align 1
  %agg.tmp296 = alloca %"class.std::__cxx11::basic_string", align 8
  %ref.tmp297 = alloca %"class.std::allocator.0", align 1
  %agg.tmp308 = alloca %"class.std::__cxx11::basic_string", align 8
  %ref.tmp309 = alloca %"class.std::allocator.0", align 1
  %agg.tmp320 = alloca %"class.std::__cxx11::basic_string", align 8
  %ref.tmp321 = alloca %"class.std::allocator.0", align 1
  %agg.tmp345 = alloca %"class.std::__cxx11::basic_string", align 8
  %ref.tmp346 = alloca %"class.std::allocator.0", align 1
  %agg.tmp357 = alloca %"class.std::__cxx11::basic_string", align 8
  %ref.tmp358 = alloca %"class.std::allocator.0", align 1
  %agg.tmp366 = alloca %"class.std::__cxx11::basic_string", align 8
  %ref.tmp367 = alloca %"class.std::allocator.0", align 1
  %agg.tmp375 = alloca %"class.std::__cxx11::basic_string", align 8
  %ref.tmp376 = alloca %"class.std::allocator.0", align 1
  %agg.tmp384 = alloca %"class.std::__cxx11::basic_string", align 8
  %ref.tmp385 = alloca %"class.std::allocator.0", align 1
  %agg.tmp393 = alloca %"class.std::__cxx11::basic_string", align 8
  %ref.tmp394 = alloca %"class.std::allocator.0", align 1
  %cleanup.dest.slot = alloca i32, align 4
  %i410 = alloca i32, align 4
  %agg.tmp436 = alloca %"class.std::__cxx11::basic_string", align 8
  %ref.tmp437 = alloca %"class.std::allocator.0", align 1
  %agg.tmp458 = alloca %"class.std::__cxx11::basic_string", align 8
  %ref.tmp459 = alloca %"class.std::allocator.0", align 1
  %agg.tmp466 = alloca %"class.std::__cxx11::basic_string", align 8
  %ref.tmp467 = alloca %"class.std::allocator.0", align 1
  store i32 0, i32* %retval, align 4
  store i32 %argc, i32* %argc.addr, align 4
  store i8** %argv, i8*** %argv.addr, align 8
  %0 = load i32, i32* %argc.addr, align 4
  %1 = load i8**, i8*** %argv.addr, align 8
  call void @_ZN6ParamsC2EiPPc(%struct.Params* %p, i32 %0, i8** %1)
  %platform = getelementptr inbounds %struct.Params, %struct.Params* %p, i32 0, i32 0
  %2 = load i32, i32* %platform, align 8
  %device = getelementptr inbounds %struct.Params, %struct.Params* %p, i32 0, i32 1
  %3 = load i32, i32* %device, align 4
  call void @_ZN11OpenCLSetupC2Eii(%struct.OpenCLSetup* %ocl, i32 %2, i32 %3)
  call void @_ZN5TimerC2Ev(%struct.Timer* %timer) #3
  call void @_ZNSaIcEC1Ev(%"class.std::allocator.0"* %ref.tmp) #3
  invoke void @_ZNSt7__cxx1112basic_stringIcSt11char_traitsIcESaIcEEC1EPKcRKS3_(%"class.std::__cxx11::basic_string"* %agg.tmp, i8* getelementptr inbounds ([11 x i8], [11 x i8]* @.str, i64 0, i64 0), %"class.std::allocator.0"* dereferenceable(1) %ref.tmp)
          to label %invoke.cont unwind label %lpad

invoke.cont:                                      ; preds = %entry
  invoke void @_ZN5Timer5startENSt7__cxx1112basic_stringIcSt11char_traitsIcESaIcEEE(%struct.Timer* %timer, %"class.std::__cxx11::basic_string"* %agg.tmp)
          to label %invoke.cont2 unwind label %lpad1

invoke.cont2:                                     ; preds = %invoke.cont
  call void @_ZNSt7__cxx1112basic_stringIcSt11char_traitsIcESaIcEED1Ev(%"class.std::__cxx11::basic_string"* %agg.tmp) #3
  call void @_ZNSaIcED1Ev(%"class.std::allocator.0"* %ref.tmp) #3
  %n_work_items = getelementptr inbounds %struct.Params, %struct.Params* %p, i32 0, i32 2
  %4 = load i32, i32* %n_work_items, align 8
  %n_work_groups = getelementptr inbounds %struct.Params, %struct.Params* %p, i32 0, i32 3
  %5 = load i32, i32* %n_work_groups, align 4
  %mul = mul nsw i32 %4, %5
  %mul3 = mul nsw i32 %mul, 2
  store i32 %mul3, i32* %in_size, align 4
  %n_work_items4 = getelementptr inbounds %struct.Params, %struct.Params* %p, i32 0, i32 2
  %6 = load i32, i32* %n_work_items4, align 8
  %mul5 = mul nsw i32 %6, 2
  store i32 %mul5, i32* %block_size, align 4
  %7 = load i32, i32* %in_size, align 4
  %conv = sext i32 %7 to i64
  %mul6 = mul i64 %conv, 4
  %call = call noalias i8* @malloc(i64 %mul6) #3
  %8 = bitcast i8* %call to i32*
  store i32* %8, i32** %h_input, align 8
  %9 = load i32, i32* %in_size, align 4
  %conv7 = sext i32 %9 to i64
  %mul8 = mul i64 %conv7, 4
  %call9 = call noalias i8* @malloc(i64 %mul8) #3
  %10 = bitcast i8* %call9 to i32*
  store i32* %10, i32** %h_output, align 8
  %11 = load i32, i32* %in_size, align 4
  %conv10 = sext i32 %11 to i64
  %mul11 = mul i64 %conv10, 4
  %call12 = call noalias i8* @malloc(i64 %mul11) #3
  %12 = bitcast i8* %call12 to i32*
  store i32* %12, i32** %h_out_ref, align 8
  %n_work_groups13 = getelementptr inbounds %struct.Params, %struct.Params* %p, i32 0, i32 3
  %13 = load i32, i32* %n_work_groups13, align 4
  %conv14 = sext i32 %13 to i64
  %mul15 = mul i64 %conv14, 4
  %call16 = call noalias i8* @malloc(i64 %mul15) #3
  %14 = bitcast i8* %call16 to i32*
  store i32* %14, i32** %h_sum_buf, align 8
  %n_work_groups17 = getelementptr inbounds %struct.Params, %struct.Params* %p, i32 0, i32 3
  %15 = load i32, i32* %n_work_groups17, align 4
  %conv18 = sext i32 %15 to i64
  %mul19 = mul i64 %conv18, 4
  %call20 = call noalias i8* @malloc(i64 %mul19) #3
  %16 = bitcast i8* %call20 to i32*
  store i32* %16, i32** %h_sum_buf_2, align 8
  %clContext = getelementptr inbounds %struct.OpenCLSetup, %struct.OpenCLSetup* %ocl, i32 0, i32 0
  %17 = load %struct._cl_context*, %struct._cl_context** %clContext, align 8
  %18 = load i32, i32* %in_size, align 4
  %conv21 = sext i32 %18 to i64
  %mul22 = mul i64 %conv21, 4
  %call25 = invoke %struct._cl_mem* @clCreateBuffer(%struct._cl_context* %17, i64 1, i64 %mul22, i8* null, i32* %clStatus)
          to label %invoke.cont24 unwind label %lpad23

invoke.cont24:                                    ; preds = %invoke.cont2
  store %struct._cl_mem* %call25, %struct._cl_mem** %d_input, align 8
  %clContext26 = getelementptr inbounds %struct.OpenCLSetup, %struct.OpenCLSetup* %ocl, i32 0, i32 0
  %19 = load %struct._cl_context*, %struct._cl_context** %clContext26, align 8
  %20 = load i32, i32* %in_size, align 4
  %conv27 = sext i32 %20 to i64
  %mul28 = mul i64 %conv27, 4
  %call30 = invoke %struct._cl_mem* @clCreateBuffer(%struct._cl_context* %19, i64 1, i64 %mul28, i8* null, i32* %clStatus)
          to label %invoke.cont29 unwind label %lpad23

invoke.cont29:                                    ; preds = %invoke.cont24
  store %struct._cl_mem* %call30, %struct._cl_mem** %d_output, align 8
  %clContext31 = getelementptr inbounds %struct.OpenCLSetup, %struct.OpenCLSetup* %ocl, i32 0, i32 0
  %21 = load %struct._cl_context*, %struct._cl_context** %clContext31, align 8
  %n_work_groups32 = getelementptr inbounds %struct.Params, %struct.Params* %p, i32 0, i32 3
  %22 = load i32, i32* %n_work_groups32, align 4
  %conv33 = sext i32 %22 to i64
  %mul34 = mul i64 %conv33, 4
  %call36 = invoke %struct._cl_mem* @clCreateBuffer(%struct._cl_context* %21, i64 1, i64 %mul34, i8* null, i32* %clStatus)
          to label %invoke.cont35 unwind label %lpad23

invoke.cont35:                                    ; preds = %invoke.cont29
  store %struct._cl_mem* %call36, %struct._cl_mem** %d_sum_buf, align 8
  %clContext37 = getelementptr inbounds %struct.OpenCLSetup, %struct.OpenCLSetup* %ocl, i32 0, i32 0
  %23 = load %struct._cl_context*, %struct._cl_context** %clContext37, align 8
  %n_work_groups38 = getelementptr inbounds %struct.Params, %struct.Params* %p, i32 0, i32 3
  %24 = load i32, i32* %n_work_groups38, align 4
  %conv39 = sext i32 %24 to i64
  %mul40 = mul i64 %conv39, 4
  %call42 = invoke %struct._cl_mem* @clCreateBuffer(%struct._cl_context* %23, i64 1, i64 %mul40, i8* null, i32* %clStatus)
          to label %invoke.cont41 unwind label %lpad23

invoke.cont41:                                    ; preds = %invoke.cont35
  store %struct._cl_mem* %call42, %struct._cl_mem** %d_sum_buf_2, align 8
  %clCommandQueue = getelementptr inbounds %struct.OpenCLSetup, %struct.OpenCLSetup* %ocl, i32 0, i32 1
  %25 = load %struct._cl_command_queue*, %struct._cl_command_queue** %clCommandQueue, align 8
  %call44 = invoke i32 @clFinish(%struct._cl_command_queue* %25)
          to label %invoke.cont43 unwind label %lpad23

invoke.cont43:                                    ; preds = %invoke.cont41
  %26 = load i32, i32* %clStatus, align 4
  %cmp = icmp ne i32 %26, 0
  br i1 %cmp, label %if.then, label %if.end

if.then:                                          ; preds = %invoke.cont43
  %27 = load %struct._IO_FILE*, %struct._IO_FILE** @stderr, align 8
  %28 = load i32, i32* %clStatus, align 4
  %call46 = invoke i32 (%struct._IO_FILE*, i8*, ...) @fprintf(%struct._IO_FILE* %27, i8* getelementptr inbounds ([29 x i8], [29 x i8]* @.str.1, i64 0, i64 0), i32 %28, i8* getelementptr inbounds ([9 x i8], [9 x i8]* @.str.2, i64 0, i64 0), i32 59)
          to label %invoke.cont45 unwind label %lpad23

invoke.cont45:                                    ; preds = %if.then
  call void @exit(i32 -1) #16
  unreachable

lpad:                                             ; preds = %entry
  %29 = landingpad { i8*, i32 }
          cleanup
  %30 = extractvalue { i8*, i32 } %29, 0
  store i8* %30, i8** %exn.slot, align 8
  %31 = extractvalue { i8*, i32 } %29, 1
  store i32 %31, i32* %ehselector.slot, align 4
  br label %ehcleanup

lpad1:                                            ; preds = %invoke.cont
  %32 = landingpad { i8*, i32 }
          cleanup
  %33 = extractvalue { i8*, i32 } %32, 0
  store i8* %33, i8** %exn.slot, align 8
  %34 = extractvalue { i8*, i32 } %32, 1
  store i32 %34, i32* %ehselector.slot, align 4
  call void @_ZNSt7__cxx1112basic_stringIcSt11char_traitsIcESaIcEED1Ev(%"class.std::__cxx11::basic_string"* %agg.tmp) #3
  br label %ehcleanup

ehcleanup:                                        ; preds = %lpad1, %lpad
  call void @_ZNSaIcED1Ev(%"class.std::allocator.0"* %ref.tmp) #3
  br label %ehcleanup474

lpad23:                                           ; preds = %if.end456, %if.then453, %invoke.cont448, %invoke.cont446, %invoke.cont444, %invoke.cont441, %for.end433, %if.then427, %if.then406, %if.end338, %if.then335, %if.end328, %if.end289, %if.then286, %invoke.cont277, %invoke.cont274, %if.end273, %if.end246, %if.then243, %invoke.cont234, %invoke.cont230, %invoke.cont227, %if.end226, %if.end199, %if.then196, %invoke.cont188, %invoke.cont185, %invoke.cont182, %invoke.cont179, %if.end178, %if.then117, %invoke.cont111, %invoke.cont105, %for.end, %for.body, %if.then74, %invoke.cont68, %if.then, %invoke.cont41, %invoke.cont35, %invoke.cont29, %invoke.cont24, %invoke.cont2
  %35 = landingpad { i8*, i32 }
          cleanup
  %36 = extractvalue { i8*, i32 } %35, 0
  store i8* %36, i8** %exn.slot, align 8
  %37 = extractvalue { i8*, i32 } %35, 1
  store i32 %37, i32* %ehselector.slot, align 4
  br label %ehcleanup474

if.end:                                           ; preds = %invoke.cont43
  call void @_ZNSaIcEC1Ev(%"class.std::allocator.0"* %ref.tmp48) #3
  invoke void @_ZNSt7__cxx1112basic_stringIcSt11char_traitsIcESaIcEEC1EPKcRKS3_(%"class.std::__cxx11::basic_string"* %agg.tmp47, i8* getelementptr inbounds ([11 x i8], [11 x i8]* @.str, i64 0, i64 0), %"class.std::allocator.0"* dereferenceable(1) %ref.tmp48)
          to label %invoke.cont50 unwind label %lpad49

invoke.cont50:                                    ; preds = %if.end
  invoke void @_ZN5Timer4stopENSt7__cxx1112basic_stringIcSt11char_traitsIcESaIcEEE(%struct.Timer* %timer, %"class.std::__cxx11::basic_string"* %agg.tmp47)
          to label %invoke.cont52 unwind label %lpad51

invoke.cont52:                                    ; preds = %invoke.cont50
  call void @_ZNSt7__cxx1112basic_stringIcSt11char_traitsIcESaIcEED1Ev(%"class.std::__cxx11::basic_string"* %agg.tmp47) #3
  call void @_ZNSaIcED1Ev(%"class.std::allocator.0"* %ref.tmp48) #3
  call void @_ZNSaIcEC1Ev(%"class.std::allocator.0"* %ref.tmp56) #3
  invoke void @_ZNSt7__cxx1112basic_stringIcSt11char_traitsIcESaIcEEC1EPKcRKS3_(%"class.std::__cxx11::basic_string"* %agg.tmp55, i8* getelementptr inbounds ([11 x i8], [11 x i8]* @.str, i64 0, i64 0), %"class.std::allocator.0"* dereferenceable(1) %ref.tmp56)
          to label %invoke.cont58 unwind label %lpad57

invoke.cont58:                                    ; preds = %invoke.cont52
  invoke void @_ZN5Timer5printENSt7__cxx1112basic_stringIcSt11char_traitsIcESaIcEEEi(%struct.Timer* %timer, %"class.std::__cxx11::basic_string"* %agg.tmp55, i32 1)
          to label %invoke.cont60 unwind label %lpad59

invoke.cont60:                                    ; preds = %invoke.cont58
  call void @_ZNSt7__cxx1112basic_stringIcSt11char_traitsIcESaIcEED1Ev(%"class.std::__cxx11::basic_string"* %agg.tmp55) #3
  call void @_ZNSaIcED1Ev(%"class.std::allocator.0"* %ref.tmp56) #3
  call void @_ZNSaIcEC1Ev(%"class.std::allocator.0"* %ref.tmp64) #3
  invoke void @_ZNSt7__cxx1112basic_stringIcSt11char_traitsIcESaIcEEC1EPKcRKS3_(%"class.std::__cxx11::basic_string"* %agg.tmp63, i8* getelementptr inbounds ([15 x i8], [15 x i8]* @.str.3, i64 0, i64 0), %"class.std::allocator.0"* dereferenceable(1) %ref.tmp64)
          to label %invoke.cont66 unwind label %lpad65

invoke.cont66:                                    ; preds = %invoke.cont60
  invoke void @_ZN5Timer5startENSt7__cxx1112basic_stringIcSt11char_traitsIcESaIcEEE(%struct.Timer* %timer, %"class.std::__cxx11::basic_string"* %agg.tmp63)
          to label %invoke.cont68 unwind label %lpad67

invoke.cont68:                                    ; preds = %invoke.cont66
  call void @_ZNSt7__cxx1112basic_stringIcSt11char_traitsIcESaIcEED1Ev(%"class.std::__cxx11::basic_string"* %agg.tmp63) #3
  call void @_ZNSaIcED1Ev(%"class.std::allocator.0"* %ref.tmp64) #3
  %file_name = getelementptr inbounds %struct.Params, %struct.Params* %p, i32 0, i32 6
  %38 = load i8*, i8** %file_name, align 8
  %call72 = invoke %struct._IO_FILE* @fopen(i8* %38, i8* getelementptr inbounds ([2 x i8], [2 x i8]* @.str.4, i64 0, i64 0))
          to label %invoke.cont71 unwind label %lpad23

invoke.cont71:                                    ; preds = %invoke.cont68
  store %struct._IO_FILE* %call72, %struct._IO_FILE** %fp, align 8
  %39 = load %struct._IO_FILE*, %struct._IO_FILE** %fp, align 8
  %cmp73 = icmp eq %struct._IO_FILE* %39, null
  br i1 %cmp73, label %if.then74, label %if.end77

if.then74:                                        ; preds = %invoke.cont71
  %call76 = invoke i32 (i8*, ...) @printf(i8* getelementptr inbounds ([18 x i8], [18 x i8]* @.str.5, i64 0, i64 0))
          to label %invoke.cont75 unwind label %lpad23

invoke.cont75:                                    ; preds = %if.then74
  br label %if.end77

lpad49:                                           ; preds = %if.end
  %40 = landingpad { i8*, i32 }
          cleanup
  %41 = extractvalue { i8*, i32 } %40, 0
  store i8* %41, i8** %exn.slot, align 8
  %42 = extractvalue { i8*, i32 } %40, 1
  store i32 %42, i32* %ehselector.slot, align 4
  br label %ehcleanup54

lpad51:                                           ; preds = %invoke.cont50
  %43 = landingpad { i8*, i32 }
          cleanup
  %44 = extractvalue { i8*, i32 } %43, 0
  store i8* %44, i8** %exn.slot, align 8
  %45 = extractvalue { i8*, i32 } %43, 1
  store i32 %45, i32* %ehselector.slot, align 4
  call void @_ZNSt7__cxx1112basic_stringIcSt11char_traitsIcESaIcEED1Ev(%"class.std::__cxx11::basic_string"* %agg.tmp47) #3
  br label %ehcleanup54

ehcleanup54:                                      ; preds = %lpad51, %lpad49
  call void @_ZNSaIcED1Ev(%"class.std::allocator.0"* %ref.tmp48) #3
  br label %ehcleanup474

lpad57:                                           ; preds = %invoke.cont52
  %46 = landingpad { i8*, i32 }
          cleanup
  %47 = extractvalue { i8*, i32 } %46, 0
  store i8* %47, i8** %exn.slot, align 8
  %48 = extractvalue { i8*, i32 } %46, 1
  store i32 %48, i32* %ehselector.slot, align 4
  br label %ehcleanup62

lpad59:                                           ; preds = %invoke.cont58
  %49 = landingpad { i8*, i32 }
          cleanup
  %50 = extractvalue { i8*, i32 } %49, 0
  store i8* %50, i8** %exn.slot, align 8
  %51 = extractvalue { i8*, i32 } %49, 1
  store i32 %51, i32* %ehselector.slot, align 4
  call void @_ZNSt7__cxx1112basic_stringIcSt11char_traitsIcESaIcEED1Ev(%"class.std::__cxx11::basic_string"* %agg.tmp55) #3
  br label %ehcleanup62

ehcleanup62:                                      ; preds = %lpad59, %lpad57
  call void @_ZNSaIcED1Ev(%"class.std::allocator.0"* %ref.tmp56) #3
  br label %ehcleanup474

lpad65:                                           ; preds = %invoke.cont60
  %52 = landingpad { i8*, i32 }
          cleanup
  %53 = extractvalue { i8*, i32 } %52, 0
  store i8* %53, i8** %exn.slot, align 8
  %54 = extractvalue { i8*, i32 } %52, 1
  store i32 %54, i32* %ehselector.slot, align 4
  br label %ehcleanup70

lpad67:                                           ; preds = %invoke.cont66
  %55 = landingpad { i8*, i32 }
          cleanup
  %56 = extractvalue { i8*, i32 } %55, 0
  store i8* %56, i8** %exn.slot, align 8
  %57 = extractvalue { i8*, i32 } %55, 1
  store i32 %57, i32* %ehselector.slot, align 4
  call void @_ZNSt7__cxx1112basic_stringIcSt11char_traitsIcESaIcEED1Ev(%"class.std::__cxx11::basic_string"* %agg.tmp63) #3
  br label %ehcleanup70

ehcleanup70:                                      ; preds = %lpad67, %lpad65
  call void @_ZNSaIcED1Ev(%"class.std::allocator.0"* %ref.tmp64) #3
  br label %ehcleanup474

if.end77:                                         ; preds = %invoke.cont75, %invoke.cont71
  store i32 0, i32* %i, align 4
  br label %for.cond

for.cond:                                         ; preds = %for.inc, %if.end77
  %58 = load i32, i32* %i, align 4
  %59 = load i32, i32* %in_size, align 4
  %cmp78 = icmp slt i32 %58, %59
  br i1 %cmp78, label %for.body, label %for.end

for.body:                                         ; preds = %for.cond
  %60 = load %struct._IO_FILE*, %struct._IO_FILE** %fp, align 8
  %call80 = invoke i32 (%struct._IO_FILE*, i8*, ...) @fscanf(%struct._IO_FILE* %60, i8* getelementptr inbounds ([3 x i8], [3 x i8]* @.str.6, i64 0, i64 0), i32* %temp)
          to label %invoke.cont79 unwind label %lpad23

invoke.cont79:                                    ; preds = %for.body
  %61 = load i32, i32* %temp, align 4
  %62 = load i32*, i32** %h_input, align 8
  %63 = load i32, i32* %i, align 4
  %idxprom = sext i32 %63 to i64
  %arrayidx = getelementptr inbounds i32, i32* %62, i64 %idxprom
  store i32 %61, i32* %arrayidx, align 4
  br label %for.inc

for.inc:                                          ; preds = %invoke.cont79
  %64 = load i32, i32* %i, align 4
  %inc = add nsw i32 %64, 1
  store i32 %inc, i32* %i, align 4
  br label %for.cond

for.end:                                          ; preds = %for.cond
  %clCommandQueue81 = getelementptr inbounds %struct.OpenCLSetup, %struct.OpenCLSetup* %ocl, i32 0, i32 1
  %65 = load %struct._cl_command_queue*, %struct._cl_command_queue** %clCommandQueue81, align 8
  %call83 = invoke i32 @clFinish(%struct._cl_command_queue* %65)
          to label %invoke.cont82 unwind label %lpad23

invoke.cont82:                                    ; preds = %for.end
  call void @_ZNSaIcEC1Ev(%"class.std::allocator.0"* %ref.tmp85) #3
  invoke void @_ZNSt7__cxx1112basic_stringIcSt11char_traitsIcESaIcEEC1EPKcRKS3_(%"class.std::__cxx11::basic_string"* %agg.tmp84, i8* getelementptr inbounds ([15 x i8], [15 x i8]* @.str.3, i64 0, i64 0), %"class.std::allocator.0"* dereferenceable(1) %ref.tmp85)
          to label %invoke.cont87 unwind label %lpad86

invoke.cont87:                                    ; preds = %invoke.cont82
  invoke void @_ZN5Timer4stopENSt7__cxx1112basic_stringIcSt11char_traitsIcESaIcEEE(%struct.Timer* %timer, %"class.std::__cxx11::basic_string"* %agg.tmp84)
          to label %invoke.cont89 unwind label %lpad88

invoke.cont89:                                    ; preds = %invoke.cont87
  call void @_ZNSt7__cxx1112basic_stringIcSt11char_traitsIcESaIcEED1Ev(%"class.std::__cxx11::basic_string"* %agg.tmp84) #3
  call void @_ZNSaIcED1Ev(%"class.std::allocator.0"* %ref.tmp85) #3
  call void @_ZNSaIcEC1Ev(%"class.std::allocator.0"* %ref.tmp93) #3
  invoke void @_ZNSt7__cxx1112basic_stringIcSt11char_traitsIcESaIcEEC1EPKcRKS3_(%"class.std::__cxx11::basic_string"* %agg.tmp92, i8* getelementptr inbounds ([15 x i8], [15 x i8]* @.str.3, i64 0, i64 0), %"class.std::allocator.0"* dereferenceable(1) %ref.tmp93)
          to label %invoke.cont95 unwind label %lpad94

invoke.cont95:                                    ; preds = %invoke.cont89
  invoke void @_ZN5Timer5printENSt7__cxx1112basic_stringIcSt11char_traitsIcESaIcEEEi(%struct.Timer* %timer, %"class.std::__cxx11::basic_string"* %agg.tmp92, i32 1)
          to label %invoke.cont97 unwind label %lpad96

invoke.cont97:                                    ; preds = %invoke.cont95
  call void @_ZNSt7__cxx1112basic_stringIcSt11char_traitsIcESaIcEED1Ev(%"class.std::__cxx11::basic_string"* %agg.tmp92) #3
  call void @_ZNSaIcED1Ev(%"class.std::allocator.0"* %ref.tmp93) #3
  call void @_ZNSaIcEC1Ev(%"class.std::allocator.0"* %ref.tmp101) #3
  invoke void @_ZNSt7__cxx1112basic_stringIcSt11char_traitsIcESaIcEEC1EPKcRKS3_(%"class.std::__cxx11::basic_string"* %agg.tmp100, i8* getelementptr inbounds ([15 x i8], [15 x i8]* @.str.7, i64 0, i64 0), %"class.std::allocator.0"* dereferenceable(1) %ref.tmp101)
          to label %invoke.cont103 unwind label %lpad102

invoke.cont103:                                   ; preds = %invoke.cont97
  invoke void @_ZN5Timer5startENSt7__cxx1112basic_stringIcSt11char_traitsIcESaIcEEE(%struct.Timer* %timer, %"class.std::__cxx11::basic_string"* %agg.tmp100)
          to label %invoke.cont105 unwind label %lpad104

invoke.cont105:                                   ; preds = %invoke.cont103
  call void @_ZNSt7__cxx1112basic_stringIcSt11char_traitsIcESaIcEED1Ev(%"class.std::__cxx11::basic_string"* %agg.tmp100) #3
  call void @_ZNSaIcED1Ev(%"class.std::allocator.0"* %ref.tmp101) #3
  %clCommandQueue108 = getelementptr inbounds %struct.OpenCLSetup, %struct.OpenCLSetup* %ocl, i32 0, i32 1
  %66 = load %struct._cl_command_queue*, %struct._cl_command_queue** %clCommandQueue108, align 8
  %67 = load %struct._cl_mem*, %struct._cl_mem** %d_input, align 8
  %68 = load i32, i32* %in_size, align 4
  %conv109 = sext i32 %68 to i64
  %mul110 = mul i64 %conv109, 4
  %69 = load i32*, i32** %h_input, align 8
  %70 = bitcast i32* %69 to i8*
  %call112 = invoke i32 @clEnqueueWriteBuffer(%struct._cl_command_queue* %66, %struct._cl_mem* %67, i32 1, i64 0, i64 %mul110, i8* %70, i32 0, %struct._cl_event** null, %struct._cl_event** null)
          to label %invoke.cont111 unwind label %lpad23

invoke.cont111:                                   ; preds = %invoke.cont105
  store i32 %call112, i32* %clStatus, align 4
  %clCommandQueue113 = getelementptr inbounds %struct.OpenCLSetup, %struct.OpenCLSetup* %ocl, i32 0, i32 1
  %71 = load %struct._cl_command_queue*, %struct._cl_command_queue** %clCommandQueue113, align 8
  %call115 = invoke i32 @clFinish(%struct._cl_command_queue* %71)
          to label %invoke.cont114 unwind label %lpad23

invoke.cont114:                                   ; preds = %invoke.cont111
  %72 = load i32, i32* %clStatus, align 4
  %cmp116 = icmp ne i32 %72, 0
  br i1 %cmp116, label %if.then117, label %if.end120

if.then117:                                       ; preds = %invoke.cont114
  %73 = load %struct._IO_FILE*, %struct._IO_FILE** @stderr, align 8
  %74 = load i32, i32* %clStatus, align 4
  %call119 = invoke i32 (%struct._IO_FILE*, i8*, ...) @fprintf(%struct._IO_FILE* %73, i8* getelementptr inbounds ([29 x i8], [29 x i8]* @.str.1, i64 0, i64 0), i32 %74, i8* getelementptr inbounds ([9 x i8], [9 x i8]* @.str.2, i64 0, i64 0), i32 83)
          to label %invoke.cont118 unwind label %lpad23

invoke.cont118:                                   ; preds = %if.then117
  call void @exit(i32 -1) #16
  unreachable

lpad86:                                           ; preds = %invoke.cont82
  %75 = landingpad { i8*, i32 }
          cleanup
  %76 = extractvalue { i8*, i32 } %75, 0
  store i8* %76, i8** %exn.slot, align 8
  %77 = extractvalue { i8*, i32 } %75, 1
  store i32 %77, i32* %ehselector.slot, align 4
  br label %ehcleanup91

lpad88:                                           ; preds = %invoke.cont87
  %78 = landingpad { i8*, i32 }
          cleanup
  %79 = extractvalue { i8*, i32 } %78, 0
  store i8* %79, i8** %exn.slot, align 8
  %80 = extractvalue { i8*, i32 } %78, 1
  store i32 %80, i32* %ehselector.slot, align 4
  call void @_ZNSt7__cxx1112basic_stringIcSt11char_traitsIcESaIcEED1Ev(%"class.std::__cxx11::basic_string"* %agg.tmp84) #3
  br label %ehcleanup91

ehcleanup91:                                      ; preds = %lpad88, %lpad86
  call void @_ZNSaIcED1Ev(%"class.std::allocator.0"* %ref.tmp85) #3
  br label %ehcleanup474

lpad94:                                           ; preds = %invoke.cont89
  %81 = landingpad { i8*, i32 }
          cleanup
  %82 = extractvalue { i8*, i32 } %81, 0
  store i8* %82, i8** %exn.slot, align 8
  %83 = extractvalue { i8*, i32 } %81, 1
  store i32 %83, i32* %ehselector.slot, align 4
  br label %ehcleanup99

lpad96:                                           ; preds = %invoke.cont95
  %84 = landingpad { i8*, i32 }
          cleanup
  %85 = extractvalue { i8*, i32 } %84, 0
  store i8* %85, i8** %exn.slot, align 8
  %86 = extractvalue { i8*, i32 } %84, 1
  store i32 %86, i32* %ehselector.slot, align 4
  call void @_ZNSt7__cxx1112basic_stringIcSt11char_traitsIcESaIcEED1Ev(%"class.std::__cxx11::basic_string"* %agg.tmp92) #3
  br label %ehcleanup99

ehcleanup99:                                      ; preds = %lpad96, %lpad94
  call void @_ZNSaIcED1Ev(%"class.std::allocator.0"* %ref.tmp93) #3
  br label %ehcleanup474

lpad102:                                          ; preds = %invoke.cont97
  %87 = landingpad { i8*, i32 }
          cleanup
  %88 = extractvalue { i8*, i32 } %87, 0
  store i8* %88, i8** %exn.slot, align 8
  %89 = extractvalue { i8*, i32 } %87, 1
  store i32 %89, i32* %ehselector.slot, align 4
  br label %ehcleanup107

lpad104:                                          ; preds = %invoke.cont103
  %90 = landingpad { i8*, i32 }
          cleanup
  %91 = extractvalue { i8*, i32 } %90, 0
  store i8* %91, i8** %exn.slot, align 8
  %92 = extractvalue { i8*, i32 } %90, 1
  store i32 %92, i32* %ehselector.slot, align 4
  call void @_ZNSt7__cxx1112basic_stringIcSt11char_traitsIcESaIcEED1Ev(%"class.std::__cxx11::basic_string"* %agg.tmp100) #3
  br label %ehcleanup107

ehcleanup107:                                     ; preds = %lpad104, %lpad102
  call void @_ZNSaIcED1Ev(%"class.std::allocator.0"* %ref.tmp101) #3
  br label %ehcleanup474

if.end120:                                        ; preds = %invoke.cont114
  call void @_ZNSaIcEC1Ev(%"class.std::allocator.0"* %ref.tmp122) #3
  invoke void @_ZNSt7__cxx1112basic_stringIcSt11char_traitsIcESaIcEEC1EPKcRKS3_(%"class.std::__cxx11::basic_string"* %agg.tmp121, i8* getelementptr inbounds ([15 x i8], [15 x i8]* @.str.7, i64 0, i64 0), %"class.std::allocator.0"* dereferenceable(1) %ref.tmp122)
          to label %invoke.cont124 unwind label %lpad123

invoke.cont124:                                   ; preds = %if.end120
  invoke void @_ZN5Timer4stopENSt7__cxx1112basic_stringIcSt11char_traitsIcESaIcEEE(%struct.Timer* %timer, %"class.std::__cxx11::basic_string"* %agg.tmp121)
          to label %invoke.cont126 unwind label %lpad125

invoke.cont126:                                   ; preds = %invoke.cont124
  call void @_ZNSt7__cxx1112basic_stringIcSt11char_traitsIcESaIcEED1Ev(%"class.std::__cxx11::basic_string"* %agg.tmp121) #3
  call void @_ZNSaIcED1Ev(%"class.std::allocator.0"* %ref.tmp122) #3
  call void @_ZNSaIcEC1Ev(%"class.std::allocator.0"* %ref.tmp130) #3
  invoke void @_ZNSt7__cxx1112basic_stringIcSt11char_traitsIcESaIcEEC1EPKcRKS3_(%"class.std::__cxx11::basic_string"* %agg.tmp129, i8* getelementptr inbounds ([15 x i8], [15 x i8]* @.str.7, i64 0, i64 0), %"class.std::allocator.0"* dereferenceable(1) %ref.tmp130)
          to label %invoke.cont132 unwind label %lpad131

invoke.cont132:                                   ; preds = %invoke.cont126
  invoke void @_ZN5Timer5printENSt7__cxx1112basic_stringIcSt11char_traitsIcESaIcEEEi(%struct.Timer* %timer, %"class.std::__cxx11::basic_string"* %agg.tmp129, i32 1)
          to label %invoke.cont134 unwind label %lpad133

invoke.cont134:                                   ; preds = %invoke.cont132
  call void @_ZNSt7__cxx1112basic_stringIcSt11char_traitsIcESaIcEED1Ev(%"class.std::__cxx11::basic_string"* %agg.tmp129) #3
  call void @_ZNSaIcED1Ev(%"class.std::allocator.0"* %ref.tmp130) #3
  store i32 0, i32* %rep, align 4
  br label %for.cond137

for.cond137:                                      ; preds = %for.inc354, %invoke.cont134
  %93 = load i32, i32* %rep, align 4
  %n_warmup = getelementptr inbounds %struct.Params, %struct.Params* %p, i32 0, i32 4
  %94 = load i32, i32* %n_warmup, align 8
  %n_reps = getelementptr inbounds %struct.Params, %struct.Params* %p, i32 0, i32 5
  %95 = load i32, i32* %n_reps, align 4
  %add = add nsw i32 %94, %95
  %cmp138 = icmp slt i32 %93, %add
  br i1 %cmp138, label %for.body139, label %for.end356

for.body139:                                      ; preds = %for.cond137
  %96 = load i32, i32* %rep, align 4
  %n_warmup140 = getelementptr inbounds %struct.Params, %struct.Params* %p, i32 0, i32 4
  %97 = load i32, i32* %n_warmup140, align 8
  %cmp141 = icmp sge i32 %96, %97
  br i1 %cmp141, label %if.then142, label %if.end151

if.then142:                                       ; preds = %for.body139
  call void @_ZNSaIcEC1Ev(%"class.std::allocator.0"* %ref.tmp144) #3
  invoke void @_ZNSt7__cxx1112basic_stringIcSt11char_traitsIcESaIcEEC1EPKcRKS3_(%"class.std::__cxx11::basic_string"* %agg.tmp143, i8* getelementptr inbounds ([12 x i8], [12 x i8]* @.str.8, i64 0, i64 0), %"class.std::allocator.0"* dereferenceable(1) %ref.tmp144)
          to label %invoke.cont146 unwind label %lpad145

invoke.cont146:                                   ; preds = %if.then142
  invoke void @_ZN5Timer5startENSt7__cxx1112basic_stringIcSt11char_traitsIcESaIcEEE(%struct.Timer* %timer, %"class.std::__cxx11::basic_string"* %agg.tmp143)
          to label %invoke.cont148 unwind label %lpad147

invoke.cont148:                                   ; preds = %invoke.cont146
  call void @_ZNSt7__cxx1112basic_stringIcSt11char_traitsIcESaIcEED1Ev(%"class.std::__cxx11::basic_string"* %agg.tmp143) #3
  call void @_ZNSaIcED1Ev(%"class.std::allocator.0"* %ref.tmp144) #3
  br label %if.end151

lpad123:                                          ; preds = %if.end120
  %98 = landingpad { i8*, i32 }
          cleanup
  %99 = extractvalue { i8*, i32 } %98, 0
  store i8* %99, i8** %exn.slot, align 8
  %100 = extractvalue { i8*, i32 } %98, 1
  store i32 %100, i32* %ehselector.slot, align 4
  br label %ehcleanup128

lpad125:                                          ; preds = %invoke.cont124
  %101 = landingpad { i8*, i32 }
          cleanup
  %102 = extractvalue { i8*, i32 } %101, 0
  store i8* %102, i8** %exn.slot, align 8
  %103 = extractvalue { i8*, i32 } %101, 1
  store i32 %103, i32* %ehselector.slot, align 4
  call void @_ZNSt7__cxx1112basic_stringIcSt11char_traitsIcESaIcEED1Ev(%"class.std::__cxx11::basic_string"* %agg.tmp121) #3
  br label %ehcleanup128

ehcleanup128:                                     ; preds = %lpad125, %lpad123
  call void @_ZNSaIcED1Ev(%"class.std::allocator.0"* %ref.tmp122) #3
  br label %ehcleanup474

lpad131:                                          ; preds = %invoke.cont126
  %104 = landingpad { i8*, i32 }
          cleanup
  %105 = extractvalue { i8*, i32 } %104, 0
  store i8* %105, i8** %exn.slot, align 8
  %106 = extractvalue { i8*, i32 } %104, 1
  store i32 %106, i32* %ehselector.slot, align 4
  br label %ehcleanup136

lpad133:                                          ; preds = %invoke.cont132
  %107 = landingpad { i8*, i32 }
          cleanup
  %108 = extractvalue { i8*, i32 } %107, 0
  store i8* %108, i8** %exn.slot, align 8
  %109 = extractvalue { i8*, i32 } %107, 1
  store i32 %109, i32* %ehselector.slot, align 4
  call void @_ZNSt7__cxx1112basic_stringIcSt11char_traitsIcESaIcEED1Ev(%"class.std::__cxx11::basic_string"* %agg.tmp129) #3
  br label %ehcleanup136

ehcleanup136:                                     ; preds = %lpad133, %lpad131
  call void @_ZNSaIcED1Ev(%"class.std::allocator.0"* %ref.tmp130) #3
  br label %ehcleanup474

lpad145:                                          ; preds = %if.then142
  %110 = landingpad { i8*, i32 }
          cleanup
  %111 = extractvalue { i8*, i32 } %110, 0
  store i8* %111, i8** %exn.slot, align 8
  %112 = extractvalue { i8*, i32 } %110, 1
  store i32 %112, i32* %ehselector.slot, align 4
  br label %ehcleanup150

lpad147:                                          ; preds = %invoke.cont146
  %113 = landingpad { i8*, i32 }
          cleanup
  %114 = extractvalue { i8*, i32 } %113, 0
  store i8* %114, i8** %exn.slot, align 8
  %115 = extractvalue { i8*, i32 } %113, 1
  store i32 %115, i32* %ehselector.slot, align 4
  call void @_ZNSt7__cxx1112basic_stringIcSt11char_traitsIcESaIcEED1Ev(%"class.std::__cxx11::basic_string"* %agg.tmp143) #3
  br label %ehcleanup150

ehcleanup150:                                     ; preds = %lpad147, %lpad145
  call void @_ZNSaIcED1Ev(%"class.std::allocator.0"* %ref.tmp144) #3
  br label %ehcleanup474

if.end151:                                        ; preds = %invoke.cont148, %for.body139
  %arrayinit.begin = getelementptr inbounds [1 x i64], [1 x i64]* %ls, i64 0, i64 0
  %n_work_items152 = getelementptr inbounds %struct.Params, %struct.Params* %p, i32 0, i32 2
  %116 = load i32, i32* %n_work_items152, align 8
  %conv153 = sext i32 %116 to i64
  store i64 %conv153, i64* %arrayinit.begin, align 8
  %arrayinit.begin154 = getelementptr inbounds [1 x i64], [1 x i64]* %gs, i64 0, i64 0
  %n_work_items155 = getelementptr inbounds %struct.Params, %struct.Params* %p, i32 0, i32 2
  %117 = load i32, i32* %n_work_items155, align 8
  %conv156 = sext i32 %117 to i64
  %n_work_groups157 = getelementptr inbounds %struct.Params, %struct.Params* %p, i32 0, i32 3
  %118 = load i32, i32* %n_work_groups157, align 4
  %conv158 = sext i32 %118 to i64
  %mul159 = mul i64 %conv156, %conv158
  store i64 %mul159, i64* %arrayinit.begin154, align 8
  %arrayinit.begin160 = getelementptr inbounds [1 x i64], [1 x i64]* %ls2, i64 0, i64 0
  %n_work_groups161 = getelementptr inbounds %struct.Params, %struct.Params* %p, i32 0, i32 3
  %119 = load i32, i32* %n_work_groups161, align 4
  %conv162 = sext i32 %119 to i64
  %div = udiv i64 %conv162, 2
  store i64 %div, i64* %arrayinit.begin160, align 8
  %arrayinit.begin163 = getelementptr inbounds [1 x i64], [1 x i64]* %gs2, i64 0, i64 0
  %n_work_groups164 = getelementptr inbounds %struct.Params, %struct.Params* %p, i32 0, i32 3
  %120 = load i32, i32* %n_work_groups164, align 4
  %conv165 = sext i32 %120 to i64
  %div166 = udiv i64 %conv165, 2
  store i64 %div166, i64* %arrayinit.begin163, align 8
  %121 = load i32, i32* %rep, align 4
  %n_warmup167 = getelementptr inbounds %struct.Params, %struct.Params* %p, i32 0, i32 4
  %122 = load i32, i32* %n_warmup167, align 8
  %cmp168 = icmp sge i32 %121, %122
  br i1 %cmp168, label %if.then169, label %if.end178

if.then169:                                       ; preds = %if.end151
  call void @_ZNSaIcEC1Ev(%"class.std::allocator.0"* %ref.tmp171) #3
  invoke void @_ZNSt7__cxx1112basic_stringIcSt11char_traitsIcESaIcEEC1EPKcRKS3_(%"class.std::__cxx11::basic_string"* %agg.tmp170, i8* getelementptr inbounds ([18 x i8], [18 x i8]* @.str.9, i64 0, i64 0), %"class.std::allocator.0"* dereferenceable(1) %ref.tmp171)
          to label %invoke.cont173 unwind label %lpad172

invoke.cont173:                                   ; preds = %if.then169
  invoke void @_ZN5Timer5startENSt7__cxx1112basic_stringIcSt11char_traitsIcESaIcEEE(%struct.Timer* %timer, %"class.std::__cxx11::basic_string"* %agg.tmp170)
          to label %invoke.cont175 unwind label %lpad174

invoke.cont175:                                   ; preds = %invoke.cont173
  call void @_ZNSt7__cxx1112basic_stringIcSt11char_traitsIcESaIcEED1Ev(%"class.std::__cxx11::basic_string"* %agg.tmp170) #3
  call void @_ZNSaIcED1Ev(%"class.std::allocator.0"* %ref.tmp171) #3
  br label %if.end178

lpad172:                                          ; preds = %if.then169
  %123 = landingpad { i8*, i32 }
          cleanup
  %124 = extractvalue { i8*, i32 } %123, 0
  store i8* %124, i8** %exn.slot, align 8
  %125 = extractvalue { i8*, i32 } %123, 1
  store i32 %125, i32* %ehselector.slot, align 4
  br label %ehcleanup177

lpad174:                                          ; preds = %invoke.cont173
  %126 = landingpad { i8*, i32 }
          cleanup
  %127 = extractvalue { i8*, i32 } %126, 0
  store i8* %127, i8** %exn.slot, align 8
  %128 = extractvalue { i8*, i32 } %126, 1
  store i32 %128, i32* %ehselector.slot, align 4
  call void @_ZNSt7__cxx1112basic_stringIcSt11char_traitsIcESaIcEED1Ev(%"class.std::__cxx11::basic_string"* %agg.tmp170) #3
  br label %ehcleanup177

ehcleanup177:                                     ; preds = %lpad174, %lpad172
  call void @_ZNSaIcED1Ev(%"class.std::allocator.0"* %ref.tmp171) #3
  br label %ehcleanup474

if.end178:                                        ; preds = %invoke.cont175, %if.end151
  %clKernel_0 = getelementptr inbounds %struct.OpenCLSetup, %struct.OpenCLSetup* %ocl, i32 0, i32 3
  %129 = load %struct._cl_kernel*, %struct._cl_kernel** %clKernel_0, align 8
  %130 = bitcast %struct._cl_mem** %d_output to i8*
  %call180 = invoke i32 @clSetKernelArg(%struct._cl_kernel* %129, i32 0, i64 8, i8* %130)
          to label %invoke.cont179 unwind label %lpad23

invoke.cont179:                                   ; preds = %if.end178
  %clKernel_0181 = getelementptr inbounds %struct.OpenCLSetup, %struct.OpenCLSetup* %ocl, i32 0, i32 3
  %131 = load %struct._cl_kernel*, %struct._cl_kernel** %clKernel_0181, align 8
  %132 = bitcast %struct._cl_mem** %d_input to i8*
  %call183 = invoke i32 @clSetKernelArg(%struct._cl_kernel* %131, i32 1, i64 8, i8* %132)
          to label %invoke.cont182 unwind label %lpad23

invoke.cont182:                                   ; preds = %invoke.cont179
  %clKernel_0184 = getelementptr inbounds %struct.OpenCLSetup, %struct.OpenCLSetup* %ocl, i32 0, i32 3
  %133 = load %struct._cl_kernel*, %struct._cl_kernel** %clKernel_0184, align 8
  %134 = bitcast i32* %block_size to i8*
  %call186 = invoke i32 @clSetKernelArg(%struct._cl_kernel* %133, i32 2, i64 4, i8* %134)
          to label %invoke.cont185 unwind label %lpad23

invoke.cont185:                                   ; preds = %invoke.cont182
  %clKernel_0187 = getelementptr inbounds %struct.OpenCLSetup, %struct.OpenCLSetup* %ocl, i32 0, i32 3
  %135 = load %struct._cl_kernel*, %struct._cl_kernel** %clKernel_0187, align 8
  %136 = bitcast %struct._cl_mem** %d_sum_buf to i8*
  %call189 = invoke i32 @clSetKernelArg(%struct._cl_kernel* %135, i32 3, i64 8, i8* %136)
          to label %invoke.cont188 unwind label %lpad23

invoke.cont188:                                   ; preds = %invoke.cont185
  %clCommandQueue190 = getelementptr inbounds %struct.OpenCLSetup, %struct.OpenCLSetup* %ocl, i32 0, i32 1
  %137 = load %struct._cl_command_queue*, %struct._cl_command_queue** %clCommandQueue190, align 8
  %clKernel_0191 = getelementptr inbounds %struct.OpenCLSetup, %struct.OpenCLSetup* %ocl, i32 0, i32 3
  %138 = load %struct._cl_kernel*, %struct._cl_kernel** %clKernel_0191, align 8
  %arraydecay = getelementptr inbounds [1 x i64], [1 x i64]* %gs, i64 0, i64 0
  %arraydecay192 = getelementptr inbounds [1 x i64], [1 x i64]* %ls, i64 0, i64 0
  %call194 = invoke i32 @clEnqueueNDRangeKernel(%struct._cl_command_queue* %137, %struct._cl_kernel* %138, i32 1, i64* null, i64* %arraydecay, i64* %arraydecay192, i32 0, %struct._cl_event** null, %struct._cl_event** null)
          to label %invoke.cont193 unwind label %lpad23

invoke.cont193:                                   ; preds = %invoke.cont188
  store i32 %call194, i32* %clStatus, align 4
  %139 = load i32, i32* %clStatus, align 4
  %cmp195 = icmp ne i32 %139, 0
  br i1 %cmp195, label %if.then196, label %if.end199

if.then196:                                       ; preds = %invoke.cont193
  %140 = load %struct._IO_FILE*, %struct._IO_FILE** @stderr, align 8
  %141 = load i32, i32* %clStatus, align 4
  %call198 = invoke i32 (%struct._IO_FILE*, i8*, ...) @fprintf(%struct._IO_FILE* %140, i8* getelementptr inbounds ([29 x i8], [29 x i8]* @.str.1, i64 0, i64 0), i32 %141, i8* getelementptr inbounds ([9 x i8], [9 x i8]* @.str.2, i64 0, i64 0), i32 110)
          to label %invoke.cont197 unwind label %lpad23

invoke.cont197:                                   ; preds = %if.then196
  call void @exit(i32 -1) #16
  unreachable

if.end199:                                        ; preds = %invoke.cont193
  %clCommandQueue200 = getelementptr inbounds %struct.OpenCLSetup, %struct.OpenCLSetup* %ocl, i32 0, i32 1
  %142 = load %struct._cl_command_queue*, %struct._cl_command_queue** %clCommandQueue200, align 8
  %call202 = invoke i32 @clFinish(%struct._cl_command_queue* %142)
          to label %invoke.cont201 unwind label %lpad23

invoke.cont201:                                   ; preds = %if.end199
  %143 = load i32, i32* %rep, align 4
  %n_warmup203 = getelementptr inbounds %struct.Params, %struct.Params* %p, i32 0, i32 4
  %144 = load i32, i32* %n_warmup203, align 8
  %cmp204 = icmp sge i32 %143, %144
  br i1 %cmp204, label %if.then205, label %if.end214

if.then205:                                       ; preds = %invoke.cont201
  call void @_ZNSaIcEC1Ev(%"class.std::allocator.0"* %ref.tmp207) #3
  invoke void @_ZNSt7__cxx1112basic_stringIcSt11char_traitsIcESaIcEEC1EPKcRKS3_(%"class.std::__cxx11::basic_string"* %agg.tmp206, i8* getelementptr inbounds ([18 x i8], [18 x i8]* @.str.9, i64 0, i64 0), %"class.std::allocator.0"* dereferenceable(1) %ref.tmp207)
          to label %invoke.cont209 unwind label %lpad208

invoke.cont209:                                   ; preds = %if.then205
  invoke void @_ZN5Timer4stopENSt7__cxx1112basic_stringIcSt11char_traitsIcESaIcEEE(%struct.Timer* %timer, %"class.std::__cxx11::basic_string"* %agg.tmp206)
          to label %invoke.cont211 unwind label %lpad210

invoke.cont211:                                   ; preds = %invoke.cont209
  call void @_ZNSt7__cxx1112basic_stringIcSt11char_traitsIcESaIcEED1Ev(%"class.std::__cxx11::basic_string"* %agg.tmp206) #3
  call void @_ZNSaIcED1Ev(%"class.std::allocator.0"* %ref.tmp207) #3
  br label %if.end214

lpad208:                                          ; preds = %if.then205
  %145 = landingpad { i8*, i32 }
          cleanup
  %146 = extractvalue { i8*, i32 } %145, 0
  store i8* %146, i8** %exn.slot, align 8
  %147 = extractvalue { i8*, i32 } %145, 1
  store i32 %147, i32* %ehselector.slot, align 4
  br label %ehcleanup213

lpad210:                                          ; preds = %invoke.cont209
  %148 = landingpad { i8*, i32 }
          cleanup
  %149 = extractvalue { i8*, i32 } %148, 0
  store i8* %149, i8** %exn.slot, align 8
  %150 = extractvalue { i8*, i32 } %148, 1
  store i32 %150, i32* %ehselector.slot, align 4
  call void @_ZNSt7__cxx1112basic_stringIcSt11char_traitsIcESaIcEED1Ev(%"class.std::__cxx11::basic_string"* %agg.tmp206) #3
  br label %ehcleanup213

ehcleanup213:                                     ; preds = %lpad210, %lpad208
  call void @_ZNSaIcED1Ev(%"class.std::allocator.0"* %ref.tmp207) #3
  br label %ehcleanup474

if.end214:                                        ; preds = %invoke.cont211, %invoke.cont201
  %151 = load i32, i32* %rep, align 4
  %n_warmup215 = getelementptr inbounds %struct.Params, %struct.Params* %p, i32 0, i32 4
  %152 = load i32, i32* %n_warmup215, align 8
  %cmp216 = icmp sge i32 %151, %152
  br i1 %cmp216, label %if.then217, label %if.end226

if.then217:                                       ; preds = %if.end214
  call void @_ZNSaIcEC1Ev(%"class.std::allocator.0"* %ref.tmp219) #3
  invoke void @_ZNSt7__cxx1112basic_stringIcSt11char_traitsIcESaIcEEC1EPKcRKS3_(%"class.std::__cxx11::basic_string"* %agg.tmp218, i8* getelementptr inbounds ([11 x i8], [11 x i8]* @.str.10, i64 0, i64 0), %"class.std::allocator.0"* dereferenceable(1) %ref.tmp219)
          to label %invoke.cont221 unwind label %lpad220

invoke.cont221:                                   ; preds = %if.then217
  invoke void @_ZN5Timer5startENSt7__cxx1112basic_stringIcSt11char_traitsIcESaIcEEE(%struct.Timer* %timer, %"class.std::__cxx11::basic_string"* %agg.tmp218)
          to label %invoke.cont223 unwind label %lpad222

invoke.cont223:                                   ; preds = %invoke.cont221
  call void @_ZNSt7__cxx1112basic_stringIcSt11char_traitsIcESaIcEED1Ev(%"class.std::__cxx11::basic_string"* %agg.tmp218) #3
  call void @_ZNSaIcED1Ev(%"class.std::allocator.0"* %ref.tmp219) #3
  br label %if.end226

lpad220:                                          ; preds = %if.then217
  %153 = landingpad { i8*, i32 }
          cleanup
  %154 = extractvalue { i8*, i32 } %153, 0
  store i8* %154, i8** %exn.slot, align 8
  %155 = extractvalue { i8*, i32 } %153, 1
  store i32 %155, i32* %ehselector.slot, align 4
  br label %ehcleanup225

lpad222:                                          ; preds = %invoke.cont221
  %156 = landingpad { i8*, i32 }
          cleanup
  %157 = extractvalue { i8*, i32 } %156, 0
  store i8* %157, i8** %exn.slot, align 8
  %158 = extractvalue { i8*, i32 } %156, 1
  store i32 %158, i32* %ehselector.slot, align 4
  call void @_ZNSt7__cxx1112basic_stringIcSt11char_traitsIcESaIcEED1Ev(%"class.std::__cxx11::basic_string"* %agg.tmp218) #3
  br label %ehcleanup225

ehcleanup225:                                     ; preds = %lpad222, %lpad220
  call void @_ZNSaIcED1Ev(%"class.std::allocator.0"* %ref.tmp219) #3
  br label %ehcleanup474

if.end226:                                        ; preds = %invoke.cont223, %if.end214
  %clKernel_1 = getelementptr inbounds %struct.OpenCLSetup, %struct.OpenCLSetup* %ocl, i32 0, i32 4
  %159 = load %struct._cl_kernel*, %struct._cl_kernel** %clKernel_1, align 8
  %160 = bitcast %struct._cl_mem** %d_sum_buf_2 to i8*
  %call228 = invoke i32 @clSetKernelArg(%struct._cl_kernel* %159, i32 0, i64 8, i8* %160)
          to label %invoke.cont227 unwind label %lpad23

invoke.cont227:                                   ; preds = %if.end226
  %clKernel_1229 = getelementptr inbounds %struct.OpenCLSetup, %struct.OpenCLSetup* %ocl, i32 0, i32 4
  %161 = load %struct._cl_kernel*, %struct._cl_kernel** %clKernel_1229, align 8
  %162 = bitcast %struct._cl_mem** %d_sum_buf to i8*
  %call231 = invoke i32 @clSetKernelArg(%struct._cl_kernel* %161, i32 1, i64 8, i8* %162)
          to label %invoke.cont230 unwind label %lpad23

invoke.cont230:                                   ; preds = %invoke.cont227
  %clKernel_1232 = getelementptr inbounds %struct.OpenCLSetup, %struct.OpenCLSetup* %ocl, i32 0, i32 4
  %163 = load %struct._cl_kernel*, %struct._cl_kernel** %clKernel_1232, align 8
  %n_work_groups233 = getelementptr inbounds %struct.Params, %struct.Params* %p, i32 0, i32 3
  %164 = bitcast i32* %n_work_groups233 to i8*
  %call235 = invoke i32 @clSetKernelArg(%struct._cl_kernel* %163, i32 2, i64 4, i8* %164)
          to label %invoke.cont234 unwind label %lpad23

invoke.cont234:                                   ; preds = %invoke.cont230
  %clCommandQueue236 = getelementptr inbounds %struct.OpenCLSetup, %struct.OpenCLSetup* %ocl, i32 0, i32 1
  %165 = load %struct._cl_command_queue*, %struct._cl_command_queue** %clCommandQueue236, align 8
  %clKernel_1237 = getelementptr inbounds %struct.OpenCLSetup, %struct.OpenCLSetup* %ocl, i32 0, i32 4
  %166 = load %struct._cl_kernel*, %struct._cl_kernel** %clKernel_1237, align 8
  %arraydecay238 = getelementptr inbounds [1 x i64], [1 x i64]* %gs2, i64 0, i64 0
  %arraydecay239 = getelementptr inbounds [1 x i64], [1 x i64]* %ls2, i64 0, i64 0
  %call241 = invoke i32 @clEnqueueNDRangeKernel(%struct._cl_command_queue* %165, %struct._cl_kernel* %166, i32 1, i64* null, i64* %arraydecay238, i64* %arraydecay239, i32 0, %struct._cl_event** null, %struct._cl_event** null)
          to label %invoke.cont240 unwind label %lpad23

invoke.cont240:                                   ; preds = %invoke.cont234
  store i32 %call241, i32* %clStatus, align 4
  %167 = load i32, i32* %clStatus, align 4
  %cmp242 = icmp ne i32 %167, 0
  br i1 %cmp242, label %if.then243, label %if.end246

if.then243:                                       ; preds = %invoke.cont240
  %168 = load %struct._IO_FILE*, %struct._IO_FILE** @stderr, align 8
  %169 = load i32, i32* %clStatus, align 4
  %call245 = invoke i32 (%struct._IO_FILE*, i8*, ...) @fprintf(%struct._IO_FILE* %168, i8* getelementptr inbounds ([29 x i8], [29 x i8]* @.str.1, i64 0, i64 0), i32 %169, i8* getelementptr inbounds ([9 x i8], [9 x i8]* @.str.2, i64 0, i64 0), i32 125)
          to label %invoke.cont244 unwind label %lpad23

invoke.cont244:                                   ; preds = %if.then243
  call void @exit(i32 -1) #16
  unreachable

if.end246:                                        ; preds = %invoke.cont240
  %clCommandQueue247 = getelementptr inbounds %struct.OpenCLSetup, %struct.OpenCLSetup* %ocl, i32 0, i32 1
  %170 = load %struct._cl_command_queue*, %struct._cl_command_queue** %clCommandQueue247, align 8
  %call249 = invoke i32 @clFinish(%struct._cl_command_queue* %170)
          to label %invoke.cont248 unwind label %lpad23

invoke.cont248:                                   ; preds = %if.end246
  %171 = load i32, i32* %rep, align 4
  %n_warmup250 = getelementptr inbounds %struct.Params, %struct.Params* %p, i32 0, i32 4
  %172 = load i32, i32* %n_warmup250, align 8
  %cmp251 = icmp sge i32 %171, %172
  br i1 %cmp251, label %if.then252, label %if.end261

if.then252:                                       ; preds = %invoke.cont248
  call void @_ZNSaIcEC1Ev(%"class.std::allocator.0"* %ref.tmp254) #3
  invoke void @_ZNSt7__cxx1112basic_stringIcSt11char_traitsIcESaIcEEC1EPKcRKS3_(%"class.std::__cxx11::basic_string"* %agg.tmp253, i8* getelementptr inbounds ([11 x i8], [11 x i8]* @.str.10, i64 0, i64 0), %"class.std::allocator.0"* dereferenceable(1) %ref.tmp254)
          to label %invoke.cont256 unwind label %lpad255

invoke.cont256:                                   ; preds = %if.then252
  invoke void @_ZN5Timer4stopENSt7__cxx1112basic_stringIcSt11char_traitsIcESaIcEEE(%struct.Timer* %timer, %"class.std::__cxx11::basic_string"* %agg.tmp253)
          to label %invoke.cont258 unwind label %lpad257

invoke.cont258:                                   ; preds = %invoke.cont256
  call void @_ZNSt7__cxx1112basic_stringIcSt11char_traitsIcESaIcEED1Ev(%"class.std::__cxx11::basic_string"* %agg.tmp253) #3
  call void @_ZNSaIcED1Ev(%"class.std::allocator.0"* %ref.tmp254) #3
  br label %if.end261

lpad255:                                          ; preds = %if.then252
  %173 = landingpad { i8*, i32 }
          cleanup
  %174 = extractvalue { i8*, i32 } %173, 0
  store i8* %174, i8** %exn.slot, align 8
  %175 = extractvalue { i8*, i32 } %173, 1
  store i32 %175, i32* %ehselector.slot, align 4
  br label %ehcleanup260

lpad257:                                          ; preds = %invoke.cont256
  %176 = landingpad { i8*, i32 }
          cleanup
  %177 = extractvalue { i8*, i32 } %176, 0
  store i8* %177, i8** %exn.slot, align 8
  %178 = extractvalue { i8*, i32 } %176, 1
  store i32 %178, i32* %ehselector.slot, align 4
  call void @_ZNSt7__cxx1112basic_stringIcSt11char_traitsIcESaIcEED1Ev(%"class.std::__cxx11::basic_string"* %agg.tmp253) #3
  br label %ehcleanup260

ehcleanup260:                                     ; preds = %lpad257, %lpad255
  call void @_ZNSaIcED1Ev(%"class.std::allocator.0"* %ref.tmp254) #3
  br label %ehcleanup474

if.end261:                                        ; preds = %invoke.cont258, %invoke.cont248
  %179 = load i32, i32* %rep, align 4
  %n_warmup262 = getelementptr inbounds %struct.Params, %struct.Params* %p, i32 0, i32 4
  %180 = load i32, i32* %n_warmup262, align 8
  %cmp263 = icmp sge i32 %179, %180
  br i1 %cmp263, label %if.then264, label %if.end273

if.then264:                                       ; preds = %if.end261
  call void @_ZNSaIcEC1Ev(%"class.std::allocator.0"* %ref.tmp266) #3
  invoke void @_ZNSt7__cxx1112basic_stringIcSt11char_traitsIcESaIcEEC1EPKcRKS3_(%"class.std::__cxx11::basic_string"* %agg.tmp265, i8* getelementptr inbounds ([15 x i8], [15 x i8]* @.str.11, i64 0, i64 0), %"class.std::allocator.0"* dereferenceable(1) %ref.tmp266)
          to label %invoke.cont268 unwind label %lpad267

invoke.cont268:                                   ; preds = %if.then264
  invoke void @_ZN5Timer5startENSt7__cxx1112basic_stringIcSt11char_traitsIcESaIcEEE(%struct.Timer* %timer, %"class.std::__cxx11::basic_string"* %agg.tmp265)
          to label %invoke.cont270 unwind label %lpad269

invoke.cont270:                                   ; preds = %invoke.cont268
  call void @_ZNSt7__cxx1112basic_stringIcSt11char_traitsIcESaIcEED1Ev(%"class.std::__cxx11::basic_string"* %agg.tmp265) #3
  call void @_ZNSaIcED1Ev(%"class.std::allocator.0"* %ref.tmp266) #3
  br label %if.end273

lpad267:                                          ; preds = %if.then264
  %181 = landingpad { i8*, i32 }
          cleanup
  %182 = extractvalue { i8*, i32 } %181, 0
  store i8* %182, i8** %exn.slot, align 8
  %183 = extractvalue { i8*, i32 } %181, 1
  store i32 %183, i32* %ehselector.slot, align 4
  br label %ehcleanup272

lpad269:                                          ; preds = %invoke.cont268
  %184 = landingpad { i8*, i32 }
          cleanup
  %185 = extractvalue { i8*, i32 } %184, 0
  store i8* %185, i8** %exn.slot, align 8
  %186 = extractvalue { i8*, i32 } %184, 1
  store i32 %186, i32* %ehselector.slot, align 4
  call void @_ZNSt7__cxx1112basic_stringIcSt11char_traitsIcESaIcEED1Ev(%"class.std::__cxx11::basic_string"* %agg.tmp265) #3
  br label %ehcleanup272

ehcleanup272:                                     ; preds = %lpad269, %lpad267
  call void @_ZNSaIcED1Ev(%"class.std::allocator.0"* %ref.tmp266) #3
  br label %ehcleanup474

if.end273:                                        ; preds = %invoke.cont270, %if.end261
  %clKernel_2 = getelementptr inbounds %struct.OpenCLSetup, %struct.OpenCLSetup* %ocl, i32 0, i32 5
  %187 = load %struct._cl_kernel*, %struct._cl_kernel** %clKernel_2, align 8
  %188 = bitcast %struct._cl_mem** %d_sum_buf_2 to i8*
  %call275 = invoke i32 @clSetKernelArg(%struct._cl_kernel* %187, i32 0, i64 8, i8* %188)
          to label %invoke.cont274 unwind label %lpad23

invoke.cont274:                                   ; preds = %if.end273
  %clKernel_2276 = getelementptr inbounds %struct.OpenCLSetup, %struct.OpenCLSetup* %ocl, i32 0, i32 5
  %189 = load %struct._cl_kernel*, %struct._cl_kernel** %clKernel_2276, align 8
  %190 = bitcast %struct._cl_mem** %d_output to i8*
  %call278 = invoke i32 @clSetKernelArg(%struct._cl_kernel* %189, i32 1, i64 8, i8* %190)
          to label %invoke.cont277 unwind label %lpad23

invoke.cont277:                                   ; preds = %invoke.cont274
  %clCommandQueue279 = getelementptr inbounds %struct.OpenCLSetup, %struct.OpenCLSetup* %ocl, i32 0, i32 1
  %191 = load %struct._cl_command_queue*, %struct._cl_command_queue** %clCommandQueue279, align 8
  %clKernel_2280 = getelementptr inbounds %struct.OpenCLSetup, %struct.OpenCLSetup* %ocl, i32 0, i32 5
  %192 = load %struct._cl_kernel*, %struct._cl_kernel** %clKernel_2280, align 8
  %arraydecay281 = getelementptr inbounds [1 x i64], [1 x i64]* %gs, i64 0, i64 0
  %arraydecay282 = getelementptr inbounds [1 x i64], [1 x i64]* %ls, i64 0, i64 0
  %call284 = invoke i32 @clEnqueueNDRangeKernel(%struct._cl_command_queue* %191, %struct._cl_kernel* %192, i32 1, i64* null, i64* %arraydecay281, i64* %arraydecay282, i32 0, %struct._cl_event** null, %struct._cl_event** null)
          to label %invoke.cont283 unwind label %lpad23

invoke.cont283:                                   ; preds = %invoke.cont277
  store i32 %call284, i32* %clStatus, align 4
  %193 = load i32, i32* %clStatus, align 4
  %cmp285 = icmp ne i32 %193, 0
  br i1 %cmp285, label %if.then286, label %if.end289

if.then286:                                       ; preds = %invoke.cont283
  %194 = load %struct._IO_FILE*, %struct._IO_FILE** @stderr, align 8
  %195 = load i32, i32* %clStatus, align 4
  %call288 = invoke i32 (%struct._IO_FILE*, i8*, ...) @fprintf(%struct._IO_FILE* %194, i8* getelementptr inbounds ([29 x i8], [29 x i8]* @.str.1, i64 0, i64 0), i32 %195, i8* getelementptr inbounds ([9 x i8], [9 x i8]* @.str.2, i64 0, i64 0), i32 140)
          to label %invoke.cont287 unwind label %lpad23

invoke.cont287:                                   ; preds = %if.then286
  call void @exit(i32 -1) #16
  unreachable

if.end289:                                        ; preds = %invoke.cont283
  %clCommandQueue290 = getelementptr inbounds %struct.OpenCLSetup, %struct.OpenCLSetup* %ocl, i32 0, i32 1
  %196 = load %struct._cl_command_queue*, %struct._cl_command_queue** %clCommandQueue290, align 8
  %call292 = invoke i32 @clFinish(%struct._cl_command_queue* %196)
          to label %invoke.cont291 unwind label %lpad23

invoke.cont291:                                   ; preds = %if.end289
  %197 = load i32, i32* %rep, align 4
  %n_warmup293 = getelementptr inbounds %struct.Params, %struct.Params* %p, i32 0, i32 4
  %198 = load i32, i32* %n_warmup293, align 8
  %cmp294 = icmp sge i32 %197, %198
  br i1 %cmp294, label %if.then295, label %if.end304

if.then295:                                       ; preds = %invoke.cont291
  call void @_ZNSaIcEC1Ev(%"class.std::allocator.0"* %ref.tmp297) #3
  invoke void @_ZNSt7__cxx1112basic_stringIcSt11char_traitsIcESaIcEEC1EPKcRKS3_(%"class.std::__cxx11::basic_string"* %agg.tmp296, i8* getelementptr inbounds ([15 x i8], [15 x i8]* @.str.11, i64 0, i64 0), %"class.std::allocator.0"* dereferenceable(1) %ref.tmp297)
          to label %invoke.cont299 unwind label %lpad298

invoke.cont299:                                   ; preds = %if.then295
  invoke void @_ZN5Timer4stopENSt7__cxx1112basic_stringIcSt11char_traitsIcESaIcEEE(%struct.Timer* %timer, %"class.std::__cxx11::basic_string"* %agg.tmp296)
          to label %invoke.cont301 unwind label %lpad300

invoke.cont301:                                   ; preds = %invoke.cont299
  call void @_ZNSt7__cxx1112basic_stringIcSt11char_traitsIcESaIcEED1Ev(%"class.std::__cxx11::basic_string"* %agg.tmp296) #3
  call void @_ZNSaIcED1Ev(%"class.std::allocator.0"* %ref.tmp297) #3
  br label %if.end304

lpad298:                                          ; preds = %if.then295
  %199 = landingpad { i8*, i32 }
          cleanup
  %200 = extractvalue { i8*, i32 } %199, 0
  store i8* %200, i8** %exn.slot, align 8
  %201 = extractvalue { i8*, i32 } %199, 1
  store i32 %201, i32* %ehselector.slot, align 4
  br label %ehcleanup303

lpad300:                                          ; preds = %invoke.cont299
  %202 = landingpad { i8*, i32 }
          cleanup
  %203 = extractvalue { i8*, i32 } %202, 0
  store i8* %203, i8** %exn.slot, align 8
  %204 = extractvalue { i8*, i32 } %202, 1
  store i32 %204, i32* %ehselector.slot, align 4
  call void @_ZNSt7__cxx1112basic_stringIcSt11char_traitsIcESaIcEED1Ev(%"class.std::__cxx11::basic_string"* %agg.tmp296) #3
  br label %ehcleanup303

ehcleanup303:                                     ; preds = %lpad300, %lpad298
  call void @_ZNSaIcED1Ev(%"class.std::allocator.0"* %ref.tmp297) #3
  br label %ehcleanup474

if.end304:                                        ; preds = %invoke.cont301, %invoke.cont291
  %205 = load i32, i32* %rep, align 4
  %n_warmup305 = getelementptr inbounds %struct.Params, %struct.Params* %p, i32 0, i32 4
  %206 = load i32, i32* %n_warmup305, align 8
  %cmp306 = icmp sge i32 %205, %206
  br i1 %cmp306, label %if.then307, label %if.end316

if.then307:                                       ; preds = %if.end304
  call void @_ZNSaIcEC1Ev(%"class.std::allocator.0"* %ref.tmp309) #3
  invoke void @_ZNSt7__cxx1112basic_stringIcSt11char_traitsIcESaIcEEC1EPKcRKS3_(%"class.std::__cxx11::basic_string"* %agg.tmp308, i8* getelementptr inbounds ([12 x i8], [12 x i8]* @.str.8, i64 0, i64 0), %"class.std::allocator.0"* dereferenceable(1) %ref.tmp309)
          to label %invoke.cont311 unwind label %lpad310

invoke.cont311:                                   ; preds = %if.then307
  invoke void @_ZN5Timer4stopENSt7__cxx1112basic_stringIcSt11char_traitsIcESaIcEEE(%struct.Timer* %timer, %"class.std::__cxx11::basic_string"* %agg.tmp308)
          to label %invoke.cont313 unwind label %lpad312

invoke.cont313:                                   ; preds = %invoke.cont311
  call void @_ZNSt7__cxx1112basic_stringIcSt11char_traitsIcESaIcEED1Ev(%"class.std::__cxx11::basic_string"* %agg.tmp308) #3
  call void @_ZNSaIcED1Ev(%"class.std::allocator.0"* %ref.tmp309) #3
  br label %if.end316

lpad310:                                          ; preds = %if.then307
  %207 = landingpad { i8*, i32 }
          cleanup
  %208 = extractvalue { i8*, i32 } %207, 0
  store i8* %208, i8** %exn.slot, align 8
  %209 = extractvalue { i8*, i32 } %207, 1
  store i32 %209, i32* %ehselector.slot, align 4
  br label %ehcleanup315

lpad312:                                          ; preds = %invoke.cont311
  %210 = landingpad { i8*, i32 }
          cleanup
  %211 = extractvalue { i8*, i32 } %210, 0
  store i8* %211, i8** %exn.slot, align 8
  %212 = extractvalue { i8*, i32 } %210, 1
  store i32 %212, i32* %ehselector.slot, align 4
  call void @_ZNSt7__cxx1112basic_stringIcSt11char_traitsIcESaIcEED1Ev(%"class.std::__cxx11::basic_string"* %agg.tmp308) #3
  br label %ehcleanup315

ehcleanup315:                                     ; preds = %lpad312, %lpad310
  call void @_ZNSaIcED1Ev(%"class.std::allocator.0"* %ref.tmp309) #3
  br label %ehcleanup474

if.end316:                                        ; preds = %invoke.cont313, %if.end304
  %213 = load i32, i32* %rep, align 4
  %n_warmup317 = getelementptr inbounds %struct.Params, %struct.Params* %p, i32 0, i32 4
  %214 = load i32, i32* %n_warmup317, align 8
  %cmp318 = icmp sge i32 %213, %214
  br i1 %cmp318, label %if.then319, label %if.end328

if.then319:                                       ; preds = %if.end316
  call void @_ZNSaIcEC1Ev(%"class.std::allocator.0"* %ref.tmp321) #3
  invoke void @_ZNSt7__cxx1112basic_stringIcSt11char_traitsIcESaIcEEC1EPKcRKS3_(%"class.std::__cxx11::basic_string"* %agg.tmp320, i8* getelementptr inbounds ([20 x i8], [20 x i8]* @.str.12, i64 0, i64 0), %"class.std::allocator.0"* dereferenceable(1) %ref.tmp321)
          to label %invoke.cont323 unwind label %lpad322

invoke.cont323:                                   ; preds = %if.then319
  invoke void @_ZN5Timer5startENSt7__cxx1112basic_stringIcSt11char_traitsIcESaIcEEE(%struct.Timer* %timer, %"class.std::__cxx11::basic_string"* %agg.tmp320)
          to label %invoke.cont325 unwind label %lpad324

invoke.cont325:                                   ; preds = %invoke.cont323
  call void @_ZNSt7__cxx1112basic_stringIcSt11char_traitsIcESaIcEED1Ev(%"class.std::__cxx11::basic_string"* %agg.tmp320) #3
  call void @_ZNSaIcED1Ev(%"class.std::allocator.0"* %ref.tmp321) #3
  br label %if.end328

lpad322:                                          ; preds = %if.then319
  %215 = landingpad { i8*, i32 }
          cleanup
  %216 = extractvalue { i8*, i32 } %215, 0
  store i8* %216, i8** %exn.slot, align 8
  %217 = extractvalue { i8*, i32 } %215, 1
  store i32 %217, i32* %ehselector.slot, align 4
  br label %ehcleanup327

lpad324:                                          ; preds = %invoke.cont323
  %218 = landingpad { i8*, i32 }
          cleanup
  %219 = extractvalue { i8*, i32 } %218, 0
  store i8* %219, i8** %exn.slot, align 8
  %220 = extractvalue { i8*, i32 } %218, 1
  store i32 %220, i32* %ehselector.slot, align 4
  call void @_ZNSt7__cxx1112basic_stringIcSt11char_traitsIcESaIcEED1Ev(%"class.std::__cxx11::basic_string"* %agg.tmp320) #3
  br label %ehcleanup327

ehcleanup327:                                     ; preds = %lpad324, %lpad322
  call void @_ZNSaIcED1Ev(%"class.std::allocator.0"* %ref.tmp321) #3
  br label %ehcleanup474

if.end328:                                        ; preds = %invoke.cont325, %if.end316
  %clCommandQueue329 = getelementptr inbounds %struct.OpenCLSetup, %struct.OpenCLSetup* %ocl, i32 0, i32 1
  %221 = load %struct._cl_command_queue*, %struct._cl_command_queue** %clCommandQueue329, align 8
  %222 = load %struct._cl_mem*, %struct._cl_mem** %d_output, align 8
  %223 = load i32, i32* %in_size, align 4
  %conv330 = sext i32 %223 to i64
  %mul331 = mul i64 %conv330, 4
  %224 = load i32*, i32** %h_output, align 8
  %225 = bitcast i32* %224 to i8*
  %call333 = invoke i32 @clEnqueueReadBuffer(%struct._cl_command_queue* %221, %struct._cl_mem* %222, i32 1, i64 0, i64 %mul331, i8* %225, i32 0, %struct._cl_event** null, %struct._cl_event** null)
          to label %invoke.cont332 unwind label %lpad23

invoke.cont332:                                   ; preds = %if.end328
  store i32 %call333, i32* %clStatus, align 4
  %226 = load i32, i32* %clStatus, align 4
  %cmp334 = icmp ne i32 %226, 0
  br i1 %cmp334, label %if.then335, label %if.end338

if.then335:                                       ; preds = %invoke.cont332
  %227 = load %struct._IO_FILE*, %struct._IO_FILE** @stderr, align 8
  %228 = load i32, i32* %clStatus, align 4
  %call337 = invoke i32 (%struct._IO_FILE*, i8*, ...) @fprintf(%struct._IO_FILE* %227, i8* getelementptr inbounds ([29 x i8], [29 x i8]* @.str.1, i64 0, i64 0), i32 %228, i8* getelementptr inbounds ([9 x i8], [9 x i8]* @.str.2, i64 0, i64 0), i32 155)
          to label %invoke.cont336 unwind label %lpad23

invoke.cont336:                                   ; preds = %if.then335
  call void @exit(i32 -1) #16
  unreachable

if.end338:                                        ; preds = %invoke.cont332
  %clCommandQueue339 = getelementptr inbounds %struct.OpenCLSetup, %struct.OpenCLSetup* %ocl, i32 0, i32 1
  %229 = load %struct._cl_command_queue*, %struct._cl_command_queue** %clCommandQueue339, align 8
  %call341 = invoke i32 @clFinish(%struct._cl_command_queue* %229)
          to label %invoke.cont340 unwind label %lpad23

invoke.cont340:                                   ; preds = %if.end338
  %230 = load i32, i32* %rep, align 4
  %n_warmup342 = getelementptr inbounds %struct.Params, %struct.Params* %p, i32 0, i32 4
  %231 = load i32, i32* %n_warmup342, align 8
  %cmp343 = icmp sge i32 %230, %231
  br i1 %cmp343, label %if.then344, label %if.end353

if.then344:                                       ; preds = %invoke.cont340
  call void @_ZNSaIcEC1Ev(%"class.std::allocator.0"* %ref.tmp346) #3
  invoke void @_ZNSt7__cxx1112basic_stringIcSt11char_traitsIcESaIcEEC1EPKcRKS3_(%"class.std::__cxx11::basic_string"* %agg.tmp345, i8* getelementptr inbounds ([20 x i8], [20 x i8]* @.str.12, i64 0, i64 0), %"class.std::allocator.0"* dereferenceable(1) %ref.tmp346)
          to label %invoke.cont348 unwind label %lpad347

invoke.cont348:                                   ; preds = %if.then344
  invoke void @_ZN5Timer4stopENSt7__cxx1112basic_stringIcSt11char_traitsIcESaIcEEE(%struct.Timer* %timer, %"class.std::__cxx11::basic_string"* %agg.tmp345)
          to label %invoke.cont350 unwind label %lpad349

invoke.cont350:                                   ; preds = %invoke.cont348
  call void @_ZNSt7__cxx1112basic_stringIcSt11char_traitsIcESaIcEED1Ev(%"class.std::__cxx11::basic_string"* %agg.tmp345) #3
  call void @_ZNSaIcED1Ev(%"class.std::allocator.0"* %ref.tmp346) #3
  br label %if.end353

lpad347:                                          ; preds = %if.then344
  %232 = landingpad { i8*, i32 }
          cleanup
  %233 = extractvalue { i8*, i32 } %232, 0
  store i8* %233, i8** %exn.slot, align 8
  %234 = extractvalue { i8*, i32 } %232, 1
  store i32 %234, i32* %ehselector.slot, align 4
  br label %ehcleanup352

lpad349:                                          ; preds = %invoke.cont348
  %235 = landingpad { i8*, i32 }
          cleanup
  %236 = extractvalue { i8*, i32 } %235, 0
  store i8* %236, i8** %exn.slot, align 8
  %237 = extractvalue { i8*, i32 } %235, 1
  store i32 %237, i32* %ehselector.slot, align 4
  call void @_ZNSt7__cxx1112basic_stringIcSt11char_traitsIcESaIcEED1Ev(%"class.std::__cxx11::basic_string"* %agg.tmp345) #3
  br label %ehcleanup352

ehcleanup352:                                     ; preds = %lpad349, %lpad347
  call void @_ZNSaIcED1Ev(%"class.std::allocator.0"* %ref.tmp346) #3
  br label %ehcleanup474

if.end353:                                        ; preds = %invoke.cont350, %invoke.cont340
  br label %for.inc354

for.inc354:                                       ; preds = %if.end353
  %238 = load i32, i32* %rep, align 4
  %inc355 = add nsw i32 %238, 1
  store i32 %inc355, i32* %rep, align 4
  br label %for.cond137

for.end356:                                       ; preds = %for.cond137
  call void @_ZNSaIcEC1Ev(%"class.std::allocator.0"* %ref.tmp358) #3
  invoke void @_ZNSt7__cxx1112basic_stringIcSt11char_traitsIcESaIcEEC1EPKcRKS3_(%"class.std::__cxx11::basic_string"* %agg.tmp357, i8* getelementptr inbounds ([12 x i8], [12 x i8]* @.str.8, i64 0, i64 0), %"class.std::allocator.0"* dereferenceable(1) %ref.tmp358)
          to label %invoke.cont360 unwind label %lpad359

invoke.cont360:                                   ; preds = %for.end356
  %n_reps361 = getelementptr inbounds %struct.Params, %struct.Params* %p, i32 0, i32 5
  %239 = load i32, i32* %n_reps361, align 4
  invoke void @_ZN5Timer5printENSt7__cxx1112basic_stringIcSt11char_traitsIcESaIcEEEi(%struct.Timer* %timer, %"class.std::__cxx11::basic_string"* %agg.tmp357, i32 %239)
          to label %invoke.cont363 unwind label %lpad362

invoke.cont363:                                   ; preds = %invoke.cont360
  call void @_ZNSt7__cxx1112basic_stringIcSt11char_traitsIcESaIcEED1Ev(%"class.std::__cxx11::basic_string"* %agg.tmp357) #3
  call void @_ZNSaIcED1Ev(%"class.std::allocator.0"* %ref.tmp358) #3
  call void @_ZNSaIcEC1Ev(%"class.std::allocator.0"* %ref.tmp367) #3
  invoke void @_ZNSt7__cxx1112basic_stringIcSt11char_traitsIcESaIcEEC1EPKcRKS3_(%"class.std::__cxx11::basic_string"* %agg.tmp366, i8* getelementptr inbounds ([18 x i8], [18 x i8]* @.str.9, i64 0, i64 0), %"class.std::allocator.0"* dereferenceable(1) %ref.tmp367)
          to label %invoke.cont369 unwind label %lpad368

invoke.cont369:                                   ; preds = %invoke.cont363
  %n_reps370 = getelementptr inbounds %struct.Params, %struct.Params* %p, i32 0, i32 5
  %240 = load i32, i32* %n_reps370, align 4
  invoke void @_ZN5Timer5printENSt7__cxx1112basic_stringIcSt11char_traitsIcESaIcEEEi(%struct.Timer* %timer, %"class.std::__cxx11::basic_string"* %agg.tmp366, i32 %240)
          to label %invoke.cont372 unwind label %lpad371

invoke.cont372:                                   ; preds = %invoke.cont369
  call void @_ZNSt7__cxx1112basic_stringIcSt11char_traitsIcESaIcEED1Ev(%"class.std::__cxx11::basic_string"* %agg.tmp366) #3
  call void @_ZNSaIcED1Ev(%"class.std::allocator.0"* %ref.tmp367) #3
  call void @_ZNSaIcEC1Ev(%"class.std::allocator.0"* %ref.tmp376) #3
  invoke void @_ZNSt7__cxx1112basic_stringIcSt11char_traitsIcESaIcEEC1EPKcRKS3_(%"class.std::__cxx11::basic_string"* %agg.tmp375, i8* getelementptr inbounds ([11 x i8], [11 x i8]* @.str.10, i64 0, i64 0), %"class.std::allocator.0"* dereferenceable(1) %ref.tmp376)
          to label %invoke.cont378 unwind label %lpad377

invoke.cont378:                                   ; preds = %invoke.cont372
  %n_reps379 = getelementptr inbounds %struct.Params, %struct.Params* %p, i32 0, i32 5
  %241 = load i32, i32* %n_reps379, align 4
  invoke void @_ZN5Timer5printENSt7__cxx1112basic_stringIcSt11char_traitsIcESaIcEEEi(%struct.Timer* %timer, %"class.std::__cxx11::basic_string"* %agg.tmp375, i32 %241)
          to label %invoke.cont381 unwind label %lpad380

invoke.cont381:                                   ; preds = %invoke.cont378
  call void @_ZNSt7__cxx1112basic_stringIcSt11char_traitsIcESaIcEED1Ev(%"class.std::__cxx11::basic_string"* %agg.tmp375) #3
  call void @_ZNSaIcED1Ev(%"class.std::allocator.0"* %ref.tmp376) #3
  call void @_ZNSaIcEC1Ev(%"class.std::allocator.0"* %ref.tmp385) #3
  invoke void @_ZNSt7__cxx1112basic_stringIcSt11char_traitsIcESaIcEEC1EPKcRKS3_(%"class.std::__cxx11::basic_string"* %agg.tmp384, i8* getelementptr inbounds ([15 x i8], [15 x i8]* @.str.11, i64 0, i64 0), %"class.std::allocator.0"* dereferenceable(1) %ref.tmp385)
          to label %invoke.cont387 unwind label %lpad386

invoke.cont387:                                   ; preds = %invoke.cont381
  %n_reps388 = getelementptr inbounds %struct.Params, %struct.Params* %p, i32 0, i32 5
  %242 = load i32, i32* %n_reps388, align 4
  invoke void @_ZN5Timer5printENSt7__cxx1112basic_stringIcSt11char_traitsIcESaIcEEEi(%struct.Timer* %timer, %"class.std::__cxx11::basic_string"* %agg.tmp384, i32 %242)
          to label %invoke.cont390 unwind label %lpad389

invoke.cont390:                                   ; preds = %invoke.cont387
  call void @_ZNSt7__cxx1112basic_stringIcSt11char_traitsIcESaIcEED1Ev(%"class.std::__cxx11::basic_string"* %agg.tmp384) #3
  call void @_ZNSaIcED1Ev(%"class.std::allocator.0"* %ref.tmp385) #3
  call void @_ZNSaIcEC1Ev(%"class.std::allocator.0"* %ref.tmp394) #3
  invoke void @_ZNSt7__cxx1112basic_stringIcSt11char_traitsIcESaIcEEC1EPKcRKS3_(%"class.std::__cxx11::basic_string"* %agg.tmp393, i8* getelementptr inbounds ([20 x i8], [20 x i8]* @.str.12, i64 0, i64 0), %"class.std::allocator.0"* dereferenceable(1) %ref.tmp394)
          to label %invoke.cont396 unwind label %lpad395

invoke.cont396:                                   ; preds = %invoke.cont390
  %n_reps397 = getelementptr inbounds %struct.Params, %struct.Params* %p, i32 0, i32 5
  %243 = load i32, i32* %n_reps397, align 4
  invoke void @_ZN5Timer5printENSt7__cxx1112basic_stringIcSt11char_traitsIcESaIcEEEi(%struct.Timer* %timer, %"class.std::__cxx11::basic_string"* %agg.tmp393, i32 %243)
          to label %invoke.cont399 unwind label %lpad398

invoke.cont399:                                   ; preds = %invoke.cont396
  call void @_ZNSt7__cxx1112basic_stringIcSt11char_traitsIcESaIcEED1Ev(%"class.std::__cxx11::basic_string"* %agg.tmp393) #3
  call void @_ZNSaIcED1Ev(%"class.std::allocator.0"* %ref.tmp394) #3
  %244 = load i32*, i32** %h_out_ref, align 8
  %arrayidx402 = getelementptr inbounds i32, i32* %244, i64 0
  store i32 0, i32* %arrayidx402, align 4
  %245 = load i32*, i32** %h_out_ref, align 8
  %arrayidx403 = getelementptr inbounds i32, i32* %245, i64 0
  %246 = load i32, i32* %arrayidx403, align 4
  %247 = load i32*, i32** %h_output, align 8
  %arrayidx404 = getelementptr inbounds i32, i32* %247, i64 0
  %248 = load i32, i32* %arrayidx404, align 4
  %cmp405 = icmp ne i32 %246, %248
  br i1 %cmp405, label %if.then406, label %if.end409

if.then406:                                       ; preds = %invoke.cont399
  %call408 = invoke i32 (i8*, ...) @printf(i8* getelementptr inbounds ([13 x i8], [13 x i8]* @.str.13, i64 0, i64 0))
          to label %invoke.cont407 unwind label %lpad23

invoke.cont407:                                   ; preds = %if.then406
  store i32 0, i32* %retval, align 4
  store i32 1, i32* %cleanup.dest.slot, align 4
  br label %cleanup

lpad359:                                          ; preds = %for.end356
  %249 = landingpad { i8*, i32 }
          cleanup
  %250 = extractvalue { i8*, i32 } %249, 0
  store i8* %250, i8** %exn.slot, align 8
  %251 = extractvalue { i8*, i32 } %249, 1
  store i32 %251, i32* %ehselector.slot, align 4
  br label %ehcleanup365

lpad362:                                          ; preds = %invoke.cont360
  %252 = landingpad { i8*, i32 }
          cleanup
  %253 = extractvalue { i8*, i32 } %252, 0
  store i8* %253, i8** %exn.slot, align 8
  %254 = extractvalue { i8*, i32 } %252, 1
  store i32 %254, i32* %ehselector.slot, align 4
  call void @_ZNSt7__cxx1112basic_stringIcSt11char_traitsIcESaIcEED1Ev(%"class.std::__cxx11::basic_string"* %agg.tmp357) #3
  br label %ehcleanup365

ehcleanup365:                                     ; preds = %lpad362, %lpad359
  call void @_ZNSaIcED1Ev(%"class.std::allocator.0"* %ref.tmp358) #3
  br label %ehcleanup474

lpad368:                                          ; preds = %invoke.cont363
  %255 = landingpad { i8*, i32 }
          cleanup
  %256 = extractvalue { i8*, i32 } %255, 0
  store i8* %256, i8** %exn.slot, align 8
  %257 = extractvalue { i8*, i32 } %255, 1
  store i32 %257, i32* %ehselector.slot, align 4
  br label %ehcleanup374

lpad371:                                          ; preds = %invoke.cont369
  %258 = landingpad { i8*, i32 }
          cleanup
  %259 = extractvalue { i8*, i32 } %258, 0
  store i8* %259, i8** %exn.slot, align 8
  %260 = extractvalue { i8*, i32 } %258, 1
  store i32 %260, i32* %ehselector.slot, align 4
  call void @_ZNSt7__cxx1112basic_stringIcSt11char_traitsIcESaIcEED1Ev(%"class.std::__cxx11::basic_string"* %agg.tmp366) #3
  br label %ehcleanup374

ehcleanup374:                                     ; preds = %lpad371, %lpad368
  call void @_ZNSaIcED1Ev(%"class.std::allocator.0"* %ref.tmp367) #3
  br label %ehcleanup474

lpad377:                                          ; preds = %invoke.cont372
  %261 = landingpad { i8*, i32 }
          cleanup
  %262 = extractvalue { i8*, i32 } %261, 0
  store i8* %262, i8** %exn.slot, align 8
  %263 = extractvalue { i8*, i32 } %261, 1
  store i32 %263, i32* %ehselector.slot, align 4
  br label %ehcleanup383

lpad380:                                          ; preds = %invoke.cont378
  %264 = landingpad { i8*, i32 }
          cleanup
  %265 = extractvalue { i8*, i32 } %264, 0
  store i8* %265, i8** %exn.slot, align 8
  %266 = extractvalue { i8*, i32 } %264, 1
  store i32 %266, i32* %ehselector.slot, align 4
  call void @_ZNSt7__cxx1112basic_stringIcSt11char_traitsIcESaIcEED1Ev(%"class.std::__cxx11::basic_string"* %agg.tmp375) #3
  br label %ehcleanup383

ehcleanup383:                                     ; preds = %lpad380, %lpad377
  call void @_ZNSaIcED1Ev(%"class.std::allocator.0"* %ref.tmp376) #3
  br label %ehcleanup474

lpad386:                                          ; preds = %invoke.cont381
  %267 = landingpad { i8*, i32 }
          cleanup
  %268 = extractvalue { i8*, i32 } %267, 0
  store i8* %268, i8** %exn.slot, align 8
  %269 = extractvalue { i8*, i32 } %267, 1
  store i32 %269, i32* %ehselector.slot, align 4
  br label %ehcleanup392

lpad389:                                          ; preds = %invoke.cont387
  %270 = landingpad { i8*, i32 }
          cleanup
  %271 = extractvalue { i8*, i32 } %270, 0
  store i8* %271, i8** %exn.slot, align 8
  %272 = extractvalue { i8*, i32 } %270, 1
  store i32 %272, i32* %ehselector.slot, align 4
  call void @_ZNSt7__cxx1112basic_stringIcSt11char_traitsIcESaIcEED1Ev(%"class.std::__cxx11::basic_string"* %agg.tmp384) #3
  br label %ehcleanup392

ehcleanup392:                                     ; preds = %lpad389, %lpad386
  call void @_ZNSaIcED1Ev(%"class.std::allocator.0"* %ref.tmp385) #3
  br label %ehcleanup474

lpad395:                                          ; preds = %invoke.cont390
  %273 = landingpad { i8*, i32 }
          cleanup
  %274 = extractvalue { i8*, i32 } %273, 0
  store i8* %274, i8** %exn.slot, align 8
  %275 = extractvalue { i8*, i32 } %273, 1
  store i32 %275, i32* %ehselector.slot, align 4
  br label %ehcleanup401

lpad398:                                          ; preds = %invoke.cont396
  %276 = landingpad { i8*, i32 }
          cleanup
  %277 = extractvalue { i8*, i32 } %276, 0
  store i8* %277, i8** %exn.slot, align 8
  %278 = extractvalue { i8*, i32 } %276, 1
  store i32 %278, i32* %ehselector.slot, align 4
  call void @_ZNSt7__cxx1112basic_stringIcSt11char_traitsIcESaIcEED1Ev(%"class.std::__cxx11::basic_string"* %agg.tmp393) #3
  br label %ehcleanup401

ehcleanup401:                                     ; preds = %lpad398, %lpad395
  call void @_ZNSaIcED1Ev(%"class.std::allocator.0"* %ref.tmp394) #3
  br label %ehcleanup474

if.end409:                                        ; preds = %invoke.cont399
  store i32 1, i32* %i410, align 4
  br label %for.cond411

for.cond411:                                      ; preds = %for.inc431, %if.end409
  %279 = load i32, i32* %i410, align 4
  %280 = load i32, i32* %in_size, align 4
  %cmp412 = icmp slt i32 %279, %280
  br i1 %cmp412, label %for.body413, label %for.end433

for.body413:                                      ; preds = %for.cond411
  %281 = load i32*, i32** %h_out_ref, align 8
  %282 = load i32, i32* %i410, align 4
  %sub = sub nsw i32 %282, 1
  %idxprom414 = sext i32 %sub to i64
  %arrayidx415 = getelementptr inbounds i32, i32* %281, i64 %idxprom414
  %283 = load i32, i32* %arrayidx415, align 4
  %284 = load i32*, i32** %h_input, align 8
  %285 = load i32, i32* %i410, align 4
  %sub416 = sub nsw i32 %285, 1
  %idxprom417 = sext i32 %sub416 to i64
  %arrayidx418 = getelementptr inbounds i32, i32* %284, i64 %idxprom417
  %286 = load i32, i32* %arrayidx418, align 4
  %add419 = add nsw i32 %283, %286
  %287 = load i32*, i32** %h_out_ref, align 8
  %288 = load i32, i32* %i410, align 4
  %idxprom420 = sext i32 %288 to i64
  %arrayidx421 = getelementptr inbounds i32, i32* %287, i64 %idxprom420
  store i32 %add419, i32* %arrayidx421, align 4
  %289 = load i32*, i32** %h_out_ref, align 8
  %290 = load i32, i32* %i410, align 4
  %idxprom422 = sext i32 %290 to i64
  %arrayidx423 = getelementptr inbounds i32, i32* %289, i64 %idxprom422
  %291 = load i32, i32* %arrayidx423, align 4
  %292 = load i32*, i32** %h_output, align 8
  %293 = load i32, i32* %i410, align 4
  %idxprom424 = sext i32 %293 to i64
  %arrayidx425 = getelementptr inbounds i32, i32* %292, i64 %idxprom424
  %294 = load i32, i32* %arrayidx425, align 4
  %cmp426 = icmp ne i32 %291, %294
  br i1 %cmp426, label %if.then427, label %if.end430

if.then427:                                       ; preds = %for.body413
  %295 = load i32, i32* %i410, align 4
  %call429 = invoke i32 (i8*, ...) @printf(i8* getelementptr inbounds ([16 x i8], [16 x i8]* @.str.14, i64 0, i64 0), i32 %295)
          to label %invoke.cont428 unwind label %lpad23

invoke.cont428:                                   ; preds = %if.then427
  store i32 0, i32* %retval, align 4
  store i32 1, i32* %cleanup.dest.slot, align 4
  br label %cleanup

if.end430:                                        ; preds = %for.body413
  br label %for.inc431

for.inc431:                                       ; preds = %if.end430
  %296 = load i32, i32* %i410, align 4
  %inc432 = add nsw i32 %296, 1
  store i32 %inc432, i32* %i410, align 4
  br label %for.cond411

for.end433:                                       ; preds = %for.cond411
  %call435 = invoke i32 (i8*, ...) @printf(i8* getelementptr inbounds ([13 x i8], [13 x i8]* @.str.15, i64 0, i64 0))
          to label %invoke.cont434 unwind label %lpad23

invoke.cont434:                                   ; preds = %for.end433
  call void @_ZNSaIcEC1Ev(%"class.std::allocator.0"* %ref.tmp437) #3
  invoke void @_ZNSt7__cxx1112basic_stringIcSt11char_traitsIcESaIcEEC1EPKcRKS3_(%"class.std::__cxx11::basic_string"* %agg.tmp436, i8* getelementptr inbounds ([13 x i8], [13 x i8]* @.str.16, i64 0, i64 0), %"class.std::allocator.0"* dereferenceable(1) %ref.tmp437)
          to label %invoke.cont439 unwind label %lpad438

invoke.cont439:                                   ; preds = %invoke.cont434
  invoke void @_ZN5Timer5startENSt7__cxx1112basic_stringIcSt11char_traitsIcESaIcEEE(%struct.Timer* %timer, %"class.std::__cxx11::basic_string"* %agg.tmp436)
          to label %invoke.cont441 unwind label %lpad440

invoke.cont441:                                   ; preds = %invoke.cont439
  call void @_ZNSt7__cxx1112basic_stringIcSt11char_traitsIcESaIcEED1Ev(%"class.std::__cxx11::basic_string"* %agg.tmp436) #3
  call void @_ZNSaIcED1Ev(%"class.std::allocator.0"* %ref.tmp437) #3
  %297 = load i32*, i32** %h_input, align 8
  %298 = bitcast i32* %297 to i8*
  call void @free(i8* %298) #3
  %299 = load i32*, i32** %h_output, align 8
  %300 = bitcast i32* %299 to i8*
  call void @free(i8* %300) #3
  %301 = load i32*, i32** %h_sum_buf, align 8
  %302 = bitcast i32* %301 to i8*
  call void @free(i8* %302) #3
  %303 = load i32*, i32** %h_sum_buf_2, align 8
  %304 = bitcast i32* %303 to i8*
  call void @free(i8* %304) #3
  %305 = load %struct._cl_mem*, %struct._cl_mem** %d_input, align 8
  %call445 = invoke i32 @clReleaseMemObject(%struct._cl_mem* %305)
          to label %invoke.cont444 unwind label %lpad23

invoke.cont444:                                   ; preds = %invoke.cont441
  store i32 %call445, i32* %clStatus, align 4
  %306 = load %struct._cl_mem*, %struct._cl_mem** %d_output, align 8
  %call447 = invoke i32 @clReleaseMemObject(%struct._cl_mem* %306)
          to label %invoke.cont446 unwind label %lpad23

invoke.cont446:                                   ; preds = %invoke.cont444
  store i32 %call447, i32* %clStatus, align 4
  %307 = load %struct._cl_mem*, %struct._cl_mem** %d_sum_buf, align 8
  %call449 = invoke i32 @clReleaseMemObject(%struct._cl_mem* %307)
          to label %invoke.cont448 unwind label %lpad23

invoke.cont448:                                   ; preds = %invoke.cont446
  store i32 %call449, i32* %clStatus, align 4
  %308 = load %struct._cl_mem*, %struct._cl_mem** %d_sum_buf_2, align 8
  %call451 = invoke i32 @clReleaseMemObject(%struct._cl_mem* %308)
          to label %invoke.cont450 unwind label %lpad23

invoke.cont450:                                   ; preds = %invoke.cont448
  store i32 %call451, i32* %clStatus, align 4
  %309 = load i32, i32* %clStatus, align 4
  %cmp452 = icmp ne i32 %309, 0
  br i1 %cmp452, label %if.then453, label %if.end456

if.then453:                                       ; preds = %invoke.cont450
  %310 = load %struct._IO_FILE*, %struct._IO_FILE** @stderr, align 8
  %311 = load i32, i32* %clStatus, align 4
  %call455 = invoke i32 (%struct._IO_FILE*, i8*, ...) @fprintf(%struct._IO_FILE* %310, i8* getelementptr inbounds ([29 x i8], [29 x i8]* @.str.1, i64 0, i64 0), i32 %311, i8* getelementptr inbounds ([9 x i8], [9 x i8]* @.str.2, i64 0, i64 0), i32 195)
          to label %invoke.cont454 unwind label %lpad23

invoke.cont454:                                   ; preds = %if.then453
  call void @exit(i32 -1) #16
  unreachable

lpad438:                                          ; preds = %invoke.cont434
  %312 = landingpad { i8*, i32 }
          cleanup
  %313 = extractvalue { i8*, i32 } %312, 0
  store i8* %313, i8** %exn.slot, align 8
  %314 = extractvalue { i8*, i32 } %312, 1
  store i32 %314, i32* %ehselector.slot, align 4
  br label %ehcleanup443

lpad440:                                          ; preds = %invoke.cont439
  %315 = landingpad { i8*, i32 }
          cleanup
  %316 = extractvalue { i8*, i32 } %315, 0
  store i8* %316, i8** %exn.slot, align 8
  %317 = extractvalue { i8*, i32 } %315, 1
  store i32 %317, i32* %ehselector.slot, align 4
  call void @_ZNSt7__cxx1112basic_stringIcSt11char_traitsIcESaIcEED1Ev(%"class.std::__cxx11::basic_string"* %agg.tmp436) #3
  br label %ehcleanup443

ehcleanup443:                                     ; preds = %lpad440, %lpad438
  call void @_ZNSaIcED1Ev(%"class.std::allocator.0"* %ref.tmp437) #3
  br label %ehcleanup474

if.end456:                                        ; preds = %invoke.cont450
  invoke void @_ZN11OpenCLSetup7releaseEv(%struct.OpenCLSetup* %ocl)
          to label %invoke.cont457 unwind label %lpad23

invoke.cont457:                                   ; preds = %if.end456
  call void @_ZNSaIcEC1Ev(%"class.std::allocator.0"* %ref.tmp459) #3
  invoke void @_ZNSt7__cxx1112basic_stringIcSt11char_traitsIcESaIcEEC1EPKcRKS3_(%"class.std::__cxx11::basic_string"* %agg.tmp458, i8* getelementptr inbounds ([13 x i8], [13 x i8]* @.str.16, i64 0, i64 0), %"class.std::allocator.0"* dereferenceable(1) %ref.tmp459)
          to label %invoke.cont461 unwind label %lpad460

invoke.cont461:                                   ; preds = %invoke.cont457
  invoke void @_ZN5Timer4stopENSt7__cxx1112basic_stringIcSt11char_traitsIcESaIcEEE(%struct.Timer* %timer, %"class.std::__cxx11::basic_string"* %agg.tmp458)
          to label %invoke.cont463 unwind label %lpad462

invoke.cont463:                                   ; preds = %invoke.cont461
  call void @_ZNSt7__cxx1112basic_stringIcSt11char_traitsIcESaIcEED1Ev(%"class.std::__cxx11::basic_string"* %agg.tmp458) #3
  call void @_ZNSaIcED1Ev(%"class.std::allocator.0"* %ref.tmp459) #3
  call void @_ZNSaIcEC1Ev(%"class.std::allocator.0"* %ref.tmp467) #3
  invoke void @_ZNSt7__cxx1112basic_stringIcSt11char_traitsIcESaIcEEC1EPKcRKS3_(%"class.std::__cxx11::basic_string"* %agg.tmp466, i8* getelementptr inbounds ([13 x i8], [13 x i8]* @.str.16, i64 0, i64 0), %"class.std::allocator.0"* dereferenceable(1) %ref.tmp467)
          to label %invoke.cont469 unwind label %lpad468

invoke.cont469:                                   ; preds = %invoke.cont463
  invoke void @_ZN5Timer5printENSt7__cxx1112basic_stringIcSt11char_traitsIcESaIcEEEi(%struct.Timer* %timer, %"class.std::__cxx11::basic_string"* %agg.tmp466, i32 1)
          to label %invoke.cont471 unwind label %lpad470

invoke.cont471:                                   ; preds = %invoke.cont469
  call void @_ZNSt7__cxx1112basic_stringIcSt11char_traitsIcESaIcEED1Ev(%"class.std::__cxx11::basic_string"* %agg.tmp466) #3
  call void @_ZNSaIcED1Ev(%"class.std::allocator.0"* %ref.tmp467) #3
  store i32 0, i32* %retval, align 4
  store i32 1, i32* %cleanup.dest.slot, align 4
  br label %cleanup

lpad460:                                          ; preds = %invoke.cont457
  %318 = landingpad { i8*, i32 }
          cleanup
  %319 = extractvalue { i8*, i32 } %318, 0
  store i8* %319, i8** %exn.slot, align 8
  %320 = extractvalue { i8*, i32 } %318, 1
  store i32 %320, i32* %ehselector.slot, align 4
  br label %ehcleanup465

lpad462:                                          ; preds = %invoke.cont461
  %321 = landingpad { i8*, i32 }
          cleanup
  %322 = extractvalue { i8*, i32 } %321, 0
  store i8* %322, i8** %exn.slot, align 8
  %323 = extractvalue { i8*, i32 } %321, 1
  store i32 %323, i32* %ehselector.slot, align 4
  call void @_ZNSt7__cxx1112basic_stringIcSt11char_traitsIcESaIcEED1Ev(%"class.std::__cxx11::basic_string"* %agg.tmp458) #3
  br label %ehcleanup465

ehcleanup465:                                     ; preds = %lpad462, %lpad460
  call void @_ZNSaIcED1Ev(%"class.std::allocator.0"* %ref.tmp459) #3
  br label %ehcleanup474

lpad468:                                          ; preds = %invoke.cont463
  %324 = landingpad { i8*, i32 }
          cleanup
  %325 = extractvalue { i8*, i32 } %324, 0
  store i8* %325, i8** %exn.slot, align 8
  %326 = extractvalue { i8*, i32 } %324, 1
  store i32 %326, i32* %ehselector.slot, align 4
  br label %ehcleanup473

lpad470:                                          ; preds = %invoke.cont469
  %327 = landingpad { i8*, i32 }
          cleanup
  %328 = extractvalue { i8*, i32 } %327, 0
  store i8* %328, i8** %exn.slot, align 8
  %329 = extractvalue { i8*, i32 } %327, 1
  store i32 %329, i32* %ehselector.slot, align 4
  call void @_ZNSt7__cxx1112basic_stringIcSt11char_traitsIcESaIcEED1Ev(%"class.std::__cxx11::basic_string"* %agg.tmp466) #3
  br label %ehcleanup473

ehcleanup473:                                     ; preds = %lpad470, %lpad468
  call void @_ZNSaIcED1Ev(%"class.std::allocator.0"* %ref.tmp467) #3
  br label %ehcleanup474

cleanup:                                          ; preds = %invoke.cont471, %invoke.cont428, %invoke.cont407
  call void @_ZN5TimerD2Ev(%struct.Timer* %timer) #3
  %330 = load i32, i32* %retval, align 4
  ret i32 %330

ehcleanup474:                                     ; preds = %ehcleanup473, %ehcleanup465, %ehcleanup443, %ehcleanup401, %ehcleanup392, %ehcleanup383, %ehcleanup374, %ehcleanup365, %ehcleanup352, %ehcleanup327, %ehcleanup315, %ehcleanup303, %ehcleanup272, %ehcleanup260, %ehcleanup225, %ehcleanup213, %ehcleanup177, %ehcleanup150, %ehcleanup136, %ehcleanup128, %ehcleanup107, %ehcleanup99, %ehcleanup91, %ehcleanup70, %ehcleanup62, %ehcleanup54, %lpad23, %ehcleanup
  call void @_ZN5TimerD2Ev(%struct.Timer* %timer) #3
  br label %eh.resume

eh.resume:                                        ; preds = %ehcleanup474
  %exn = load i8*, i8** %exn.slot, align 8
  %sel = load i32, i32* %ehselector.slot, align 4
  %lpad.val = insertvalue { i8*, i32 } undef, i8* %exn, 0
  %lpad.val475 = insertvalue { i8*, i32 } %lpad.val, i32 %sel, 1
  resume { i8*, i32 } %lpad.val475
}

; Function Attrs: noinline nounwind optnone uwtable
define linkonce_odr dso_local void @_ZN6ParamsC2EiPPc(%struct.Params* %this, i32 %argc, i8** %argv) unnamed_addr #5 comdat align 2 {
entry:
  %this.addr = alloca %struct.Params*, align 8
  %argc.addr = alloca i32, align 4
  %argv.addr = alloca i8**, align 8
  store %struct.Params* %this, %struct.Params** %this.addr, align 8
  store i32 %argc, i32* %argc.addr, align 4
  store i8** %argv, i8*** %argv.addr, align 8
  %this1 = load %struct.Params*, %struct.Params** %this.addr, align 8
  %platform = getelementptr inbounds %struct.Params, %struct.Params* %this1, i32 0, i32 0
  store i32 0, i32* %platform, align 8
  %device = getelementptr inbounds %struct.Params, %struct.Params* %this1, i32 0, i32 1
  store i32 0, i32* %device, align 4
  %n_work_items = getelementptr inbounds %struct.Params, %struct.Params* %this1, i32 0, i32 2
  store i32 256, i32* %n_work_items, align 8
  %n_work_groups = getelementptr inbounds %struct.Params, %struct.Params* %this1, i32 0, i32 3
  store i32 512, i32* %n_work_groups, align 4
  %n_warmup = getelementptr inbounds %struct.Params, %struct.Params* %this1, i32 0, i32 4
  store i32 10, i32* %n_warmup, align 8
  %n_reps = getelementptr inbounds %struct.Params, %struct.Params* %this1, i32 0, i32 5
  store i32 100, i32* %n_reps, align 4
  %file_name = getelementptr inbounds %struct.Params, %struct.Params* %this1, i32 0, i32 6
  store i8* getelementptr inbounds ([17 x i8], [17 x i8]* @.str.17, i64 0, i64 0), i8** %file_name, align 8
  ret void
}

; Function Attrs: noinline optnone uwtable
define linkonce_odr dso_local void @_ZN11OpenCLSetupC2Eii(%struct.OpenCLSetup* %this, i32 %platform, i32 %device) unnamed_addr #6 comdat align 2 personality i8* bitcast (i32 (...)* @__gxx_personality_v0 to i8*) {
entry:
  %this.addr = alloca %struct.OpenCLSetup*, align 8
  %platform.addr = alloca i32, align 4
  %device.addr = alloca i32, align 4
  %clStatus = alloca i32, align 4
  %clPlatform = alloca %struct._cl_platform_id*, align 8
  %clNumDevices = alloca i32, align 4
  %clDevices = alloca %struct._cl_device_id**, align 8
  %ref.tmp = alloca %"class.std::__cxx11::basic_string", align 8
  %exn.slot = alloca i8*
  %ehselector.slot = alloca i32
  %i = alloca i32, align 4
  %ref.tmp18 = alloca %"class.std::__cxx11::basic_string", align 8
  %device_name_ = alloca [100 x i8], align 16
  %binary_file = alloca %"class.std::__cxx11::basic_string", align 8
  %clOptions = alloca [50 x i8], align 16
  %log_size = alloca i64, align 8
  %log = alloca i8*, align 8
  store %struct.OpenCLSetup* %this, %struct.OpenCLSetup** %this.addr, align 8
  store i32 %platform, i32* %platform.addr, align 4
  store i32 %device, i32* %device.addr, align 4
  %this1 = load %struct.OpenCLSetup*, %struct.OpenCLSetup** %this.addr, align 8
  store %struct._cl_platform_id* null, %struct._cl_platform_id** %clPlatform, align 8
  %call = call %struct._cl_platform_id* @_ZN10aocl_utils12findPlatformEPKc(i8* getelementptr inbounds ([14 x i8], [14 x i8]* @.str.18, i64 0, i64 0))
  store %struct._cl_platform_id* %call, %struct._cl_platform_id** %clPlatform, align 8
  %0 = load %struct._cl_platform_id*, %struct._cl_platform_id** %clPlatform, align 8
  %cmp = icmp eq %struct._cl_platform_id* %0, null
  br i1 %cmp, label %if.then, label %if.end

if.then:                                          ; preds = %entry
  %call2 = call i32 (i8*, ...) @printf(i8* getelementptr inbounds ([54 x i8], [54 x i8]* @.str.19, i64 0, i64 0))
  br label %if.end

if.end:                                           ; preds = %if.then, %entry
  %1 = load %struct._cl_platform_id*, %struct._cl_platform_id** %clPlatform, align 8
  %call3 = call i32 @clGetDeviceIDs(%struct._cl_platform_id* %1, i64 4294967295, i32 0, %struct._cl_device_id** null, i32* %clNumDevices)
  store i32 %call3, i32* %clStatus, align 4
  %2 = load i32, i32* %clStatus, align 4
  %cmp4 = icmp ne i32 %2, 0
  br i1 %cmp4, label %if.then5, label %if.end7

if.then5:                                         ; preds = %if.end
  %3 = load %struct._IO_FILE*, %struct._IO_FILE** @stderr, align 8
  %4 = load i32, i32* %clStatus, align 4
  %call6 = call i32 (%struct._IO_FILE*, i8*, ...) @fprintf(%struct._IO_FILE* %3, i8* getelementptr inbounds ([29 x i8], [29 x i8]* @.str.1, i64 0, i64 0), i32 %4, i8* getelementptr inbounds ([16 x i8], [16 x i8]* @.str.20, i64 0, i64 0), i32 56)
  call void @exit(i32 -1) #16
  unreachable

if.end7:                                          ; preds = %if.end
  %5 = load i32, i32* %clNumDevices, align 4
  %conv = zext i32 %5 to i64
  %6 = call { i64, i1 } @llvm.umul.with.overflow.i64(i64 %conv, i64 8)
  %7 = extractvalue { i64, i1 } %6, 1
  %8 = extractvalue { i64, i1 } %6, 0
  %9 = select i1 %7, i64 -1, i64 %8
  %call8 = call i8* @_Znam(i64 %9) #17
  %10 = bitcast i8* %call8 to %struct._cl_device_id**
  store %struct._cl_device_id** %10, %struct._cl_device_id*** %clDevices, align 8
  %11 = load %struct._cl_platform_id*, %struct._cl_platform_id** %clPlatform, align 8
  %12 = load i32, i32* %clNumDevices, align 4
  %13 = load %struct._cl_device_id**, %struct._cl_device_id*** %clDevices, align 8
  %call9 = call i32 @clGetDeviceIDs(%struct._cl_platform_id* %11, i64 4294967295, i32 %12, %struct._cl_device_id** %13, i32* null)
  store i32 %call9, i32* %clStatus, align 4
  %14 = load i32, i32* %clStatus, align 4
  %cmp10 = icmp ne i32 %14, 0
  br i1 %cmp10, label %if.then11, label %if.end13

if.then11:                                        ; preds = %if.end7
  %15 = load %struct._IO_FILE*, %struct._IO_FILE** @stderr, align 8
  %16 = load i32, i32* %clStatus, align 4
  %call12 = call i32 (%struct._IO_FILE*, i8*, ...) @fprintf(%struct._IO_FILE* %15, i8* getelementptr inbounds ([29 x i8], [29 x i8]* @.str.1, i64 0, i64 0), i32 %16, i8* getelementptr inbounds ([16 x i8], [16 x i8]* @.str.20, i64 0, i64 0), i32 59)
  call void @exit(i32 -1) #16
  unreachable

if.end13:                                         ; preds = %if.end7
  %17 = load %struct._cl_platform_id*, %struct._cl_platform_id** %clPlatform, align 8
  call void @_ZN10aocl_utils15getPlatformNameB5cxx11EP15_cl_platform_id(%"class.std::__cxx11::basic_string"* sret %ref.tmp, %struct._cl_platform_id* %17)
  %call14 = call i8* @_ZNKSt7__cxx1112basic_stringIcSt11char_traitsIcESaIcEE5c_strEv(%"class.std::__cxx11::basic_string"* %ref.tmp) #3
  %call15 = invoke i32 (i8*, ...) @printf(i8* getelementptr inbounds ([14 x i8], [14 x i8]* @.str.21, i64 0, i64 0), i8* %call14)
          to label %invoke.cont unwind label %lpad

invoke.cont:                                      ; preds = %if.end13
  call void @_ZNSt7__cxx1112basic_stringIcSt11char_traitsIcESaIcEED1Ev(%"class.std::__cxx11::basic_string"* %ref.tmp) #3
  %18 = load i32, i32* %clNumDevices, align 4
  %call16 = call i32 (i8*, ...) @printf(i8* getelementptr inbounds ([20 x i8], [20 x i8]* @.str.22, i64 0, i64 0), i32 %18)
  store i32 0, i32* %i, align 4
  br label %for.cond

for.cond:                                         ; preds = %for.inc, %invoke.cont
  %19 = load i32, i32* %i, align 4
  %20 = load i32, i32* %clNumDevices, align 4
  %cmp17 = icmp ult i32 %19, %20
  br i1 %cmp17, label %for.body, label %for.end

for.body:                                         ; preds = %for.cond
  %21 = load %struct._cl_device_id**, %struct._cl_device_id*** %clDevices, align 8
  %22 = load i32, i32* %i, align 4
  %idxprom = zext i32 %22 to i64
  %arrayidx = getelementptr inbounds %struct._cl_device_id*, %struct._cl_device_id** %21, i64 %idxprom
  %23 = load %struct._cl_device_id*, %struct._cl_device_id** %arrayidx, align 8
  call void @_ZN10aocl_utils13getDeviceNameB5cxx11EP13_cl_device_id(%"class.std::__cxx11::basic_string"* sret %ref.tmp18, %struct._cl_device_id* %23)
  %call19 = call i8* @_ZNKSt7__cxx1112basic_stringIcSt11char_traitsIcESaIcEE5c_strEv(%"class.std::__cxx11::basic_string"* %ref.tmp18) #3
  %call22 = invoke i32 (i8*, ...) @printf(i8* getelementptr inbounds ([6 x i8], [6 x i8]* @.str.23, i64 0, i64 0), i8* %call19)
          to label %invoke.cont21 unwind label %lpad20

invoke.cont21:                                    ; preds = %for.body
  call void @_ZNSt7__cxx1112basic_stringIcSt11char_traitsIcESaIcEED1Ev(%"class.std::__cxx11::basic_string"* %ref.tmp18) #3
  br label %for.inc

for.inc:                                          ; preds = %invoke.cont21
  %24 = load i32, i32* %i, align 4
  %inc = add i32 %24, 1
  store i32 %inc, i32* %i, align 4
  br label %for.cond

lpad:                                             ; preds = %if.end13
  %25 = landingpad { i8*, i32 }
          cleanup
  %26 = extractvalue { i8*, i32 } %25, 0
  store i8* %26, i8** %exn.slot, align 8
  %27 = extractvalue { i8*, i32 } %25, 1
  store i32 %27, i32* %ehselector.slot, align 4
  call void @_ZNSt7__cxx1112basic_stringIcSt11char_traitsIcESaIcEED1Ev(%"class.std::__cxx11::basic_string"* %ref.tmp) #3
  br label %eh.resume

lpad20:                                           ; preds = %for.body
  %28 = landingpad { i8*, i32 }
          cleanup
  %29 = extractvalue { i8*, i32 } %28, 0
  store i8* %29, i8** %exn.slot, align 8
  %30 = extractvalue { i8*, i32 } %28, 1
  store i32 %30, i32* %ehselector.slot, align 4
  call void @_ZNSt7__cxx1112basic_stringIcSt11char_traitsIcESaIcEED1Ev(%"class.std::__cxx11::basic_string"* %ref.tmp18) #3
  br label %eh.resume

for.end:                                          ; preds = %for.cond
  %31 = load i32, i32* %clNumDevices, align 4
  %32 = load %struct._cl_device_id**, %struct._cl_device_id*** %clDevices, align 8
  %call23 = call %struct._cl_context* @clCreateContext(i64* null, i32 %31, %struct._cl_device_id** %32, void (i8*, i8*, i64, i8*)* @_ZN10aocl_utils18oclContextCallbackEPKcPKvmPv, i8* null, i32* %clStatus)
  %clContext = getelementptr inbounds %struct.OpenCLSetup, %struct.OpenCLSetup* %this1, i32 0, i32 0
  store %struct._cl_context* %call23, %struct._cl_context** %clContext, align 8
  %33 = load i32, i32* %clStatus, align 4
  %cmp24 = icmp ne i32 %33, 0
  br i1 %cmp24, label %if.then25, label %if.end27

if.then25:                                        ; preds = %for.end
  %34 = load %struct._IO_FILE*, %struct._IO_FILE** @stderr, align 8
  %35 = load i32, i32* %clStatus, align 4
  %call26 = call i32 (%struct._IO_FILE*, i8*, ...) @fprintf(%struct._IO_FILE* %34, i8* getelementptr inbounds ([29 x i8], [29 x i8]* @.str.1, i64 0, i64 0), i32 %35, i8* getelementptr inbounds ([16 x i8], [16 x i8]* @.str.20, i64 0, i64 0), i32 69)
  call void @exit(i32 -1) #16
  unreachable

if.end27:                                         ; preds = %for.end
  %36 = load %struct._cl_device_id**, %struct._cl_device_id*** %clDevices, align 8
  %37 = load i32, i32* %device.addr, align 4
  %idxprom28 = sext i32 %37 to i64
  %arrayidx29 = getelementptr inbounds %struct._cl_device_id*, %struct._cl_device_id** %36, i64 %idxprom28
  %38 = load %struct._cl_device_id*, %struct._cl_device_id** %arrayidx29, align 8
  %39 = bitcast [100 x i8]* %device_name_ to i8*
  %call30 = call i32 @clGetDeviceInfo(%struct._cl_device_id* %38, i32 4139, i64 100, i8* %39, i64* null)
  %40 = load %struct._cl_device_id**, %struct._cl_device_id*** %clDevices, align 8
  %41 = load i32, i32* %device.addr, align 4
  %idxprom31 = sext i32 %41 to i64
  %arrayidx32 = getelementptr inbounds %struct._cl_device_id*, %struct._cl_device_id** %40, i64 %idxprom31
  %42 = load %struct._cl_device_id*, %struct._cl_device_id** %arrayidx32, align 8
  %clDeviceID = getelementptr inbounds %struct.OpenCLSetup, %struct.OpenCLSetup* %this1, i32 0, i32 6
  store %struct._cl_device_id* %42, %struct._cl_device_id** %clDeviceID, align 8
  %43 = load %struct._IO_FILE*, %struct._IO_FILE** @stderr, align 8
  %arraydecay = getelementptr inbounds [100 x i8], [100 x i8]* %device_name_, i64 0, i64 0
  %call33 = call i32 (%struct._IO_FILE*, i8*, ...) @fprintf(%struct._IO_FILE* %43, i8* getelementptr inbounds ([4 x i8], [4 x i8]* @.str.24, i64 0, i64 0), i8* %arraydecay)
  %clContext34 = getelementptr inbounds %struct.OpenCLSetup, %struct.OpenCLSetup* %this1, i32 0, i32 0
  %44 = load %struct._cl_context*, %struct._cl_context** %clContext34, align 8
  %45 = load %struct._cl_device_id**, %struct._cl_device_id*** %clDevices, align 8
  %46 = load i32, i32* %device.addr, align 4
  %idxprom35 = sext i32 %46 to i64
  %arrayidx36 = getelementptr inbounds %struct._cl_device_id*, %struct._cl_device_id** %45, i64 %idxprom35
  %47 = load %struct._cl_device_id*, %struct._cl_device_id** %arrayidx36, align 8
  %call37 = call %struct._cl_command_queue* @clCreateCommandQueue(%struct._cl_context* %44, %struct._cl_device_id* %47, i64 0, i32* %clStatus)
  %clCommandQueue = getelementptr inbounds %struct.OpenCLSetup, %struct.OpenCLSetup* %this1, i32 0, i32 1
  store %struct._cl_command_queue* %call37, %struct._cl_command_queue** %clCommandQueue, align 8
  %48 = load i32, i32* %clStatus, align 4
  %cmp38 = icmp ne i32 %48, 0
  br i1 %cmp38, label %if.then39, label %if.end41

if.then39:                                        ; preds = %if.end27
  %49 = load %struct._IO_FILE*, %struct._IO_FILE** @stderr, align 8
  %50 = load i32, i32* %clStatus, align 4
  %call40 = call i32 (%struct._IO_FILE*, i8*, ...) @fprintf(%struct._IO_FILE* %49, i8* getelementptr inbounds ([29 x i8], [29 x i8]* @.str.1, i64 0, i64 0), i32 %50, i8* getelementptr inbounds ([16 x i8], [16 x i8]* @.str.20, i64 0, i64 0), i32 78)
  call void @exit(i32 -1) #16
  unreachable

if.end41:                                         ; preds = %if.end27
  %clDeviceID42 = getelementptr inbounds %struct.OpenCLSetup, %struct.OpenCLSetup* %this1, i32 0, i32 6
  %51 = load %struct._cl_device_id*, %struct._cl_device_id** %clDeviceID42, align 8
  call void @_ZN10aocl_utils18getBoardBinaryFileB5cxx11EPKcP13_cl_device_id(%"class.std::__cxx11::basic_string"* sret %binary_file, i8* getelementptr inbounds ([11 x i8], [11 x i8]* @.str.25, i64 0, i64 0), %struct._cl_device_id* %51)
  %call43 = call i8* @_ZNKSt7__cxx1112basic_stringIcSt11char_traitsIcESaIcEE5c_strEv(%"class.std::__cxx11::basic_string"* %binary_file) #3
  %call46 = invoke i32 (i8*, ...) @printf(i8* getelementptr inbounds ([16 x i8], [16 x i8]* @.str.26, i64 0, i64 0), i8* %call43)
          to label %invoke.cont45 unwind label %lpad44

invoke.cont45:                                    ; preds = %if.end41
  %clContext47 = getelementptr inbounds %struct.OpenCLSetup, %struct.OpenCLSetup* %this1, i32 0, i32 0
  %52 = load %struct._cl_context*, %struct._cl_context** %clContext47, align 8
  %call48 = call i8* @_ZNKSt7__cxx1112basic_stringIcSt11char_traitsIcESaIcEE5c_strEv(%"class.std::__cxx11::basic_string"* %binary_file) #3
  %clDeviceID49 = getelementptr inbounds %struct.OpenCLSetup, %struct.OpenCLSetup* %this1, i32 0, i32 6
  %call51 = invoke %struct._cl_program* @_ZN10aocl_utils23createProgramFromBinaryEP11_cl_contextPKcPKP13_cl_device_idj(%struct._cl_context* %52, i8* %call48, %struct._cl_device_id** %clDeviceID49, i32 1)
          to label %invoke.cont50 unwind label %lpad44

invoke.cont50:                                    ; preds = %invoke.cont45
  %clProgram = getelementptr inbounds %struct.OpenCLSetup, %struct.OpenCLSetup* %this1, i32 0, i32 2
  store %struct._cl_program* %call51, %struct._cl_program** %clProgram, align 8
  %53 = load i32, i32* %clStatus, align 4
  %cmp52 = icmp ne i32 %53, 0
  br i1 %cmp52, label %if.then53, label %if.end56

if.then53:                                        ; preds = %invoke.cont50
  %54 = load %struct._IO_FILE*, %struct._IO_FILE** @stderr, align 8
  %55 = load i32, i32* %clStatus, align 4
  %call55 = invoke i32 (%struct._IO_FILE*, i8*, ...) @fprintf(%struct._IO_FILE* %54, i8* getelementptr inbounds ([29 x i8], [29 x i8]* @.str.1, i64 0, i64 0), i32 %55, i8* getelementptr inbounds ([16 x i8], [16 x i8]* @.str.20, i64 0, i64 0), i32 87)
          to label %invoke.cont54 unwind label %lpad44

invoke.cont54:                                    ; preds = %if.then53
  call void @exit(i32 -1) #16
  unreachable

lpad44:                                           ; preds = %if.then93, %invoke.cont87, %invoke.cont84, %if.end82, %if.then79, %invoke.cont73, %invoke.cont67, %if.then63, %if.end56, %if.then53, %invoke.cont45, %if.end41
  %56 = landingpad { i8*, i32 }
          cleanup
  %57 = extractvalue { i8*, i32 } %56, 0
  store i8* %57, i8** %exn.slot, align 8
  %58 = extractvalue { i8*, i32 } %56, 1
  store i32 %58, i32* %ehselector.slot, align 4
  call void @_ZNSt7__cxx1112basic_stringIcSt11char_traitsIcESaIcEED1Ev(%"class.std::__cxx11::basic_string"* %binary_file) #3
  br label %eh.resume

if.end56:                                         ; preds = %invoke.cont50
  %arraydecay57 = getelementptr inbounds [50 x i8], [50 x i8]* %clOptions, i64 0, i64 0
  %call58 = call i32 (i8*, i8*, ...) @sprintf(i8* %arraydecay57, i8* getelementptr inbounds ([4 x i8], [4 x i8]* @.str.27, i64 0, i64 0)) #3
  %clProgram59 = getelementptr inbounds %struct.OpenCLSetup, %struct.OpenCLSetup* %this1, i32 0, i32 2
  %59 = load %struct._cl_program*, %struct._cl_program** %clProgram59, align 8
  %call61 = invoke i32 @clBuildProgram(%struct._cl_program* %59, i32 0, %struct._cl_device_id** null, i8* getelementptr inbounds ([1 x i8], [1 x i8]* @.str.28, i64 0, i64 0), void (%struct._cl_program*, i8*)* null, i8* null)
          to label %invoke.cont60 unwind label %lpad44

invoke.cont60:                                    ; preds = %if.end56
  store i32 %call61, i32* %clStatus, align 4
  %60 = load i32, i32* %clStatus, align 4
  %cmp62 = icmp eq i32 %60, -11
  br i1 %cmp62, label %if.then63, label %if.end77

if.then63:                                        ; preds = %invoke.cont60
  %clProgram64 = getelementptr inbounds %struct.OpenCLSetup, %struct.OpenCLSetup* %this1, i32 0, i32 2
  %61 = load %struct._cl_program*, %struct._cl_program** %clProgram64, align 8
  %62 = load %struct._cl_device_id**, %struct._cl_device_id*** %clDevices, align 8
  %63 = load i32, i32* %device.addr, align 4
  %idxprom65 = sext i32 %63 to i64
  %arrayidx66 = getelementptr inbounds %struct._cl_device_id*, %struct._cl_device_id** %62, i64 %idxprom65
  %64 = load %struct._cl_device_id*, %struct._cl_device_id** %arrayidx66, align 8
  %call68 = invoke i32 @clGetProgramBuildInfo(%struct._cl_program* %61, %struct._cl_device_id* %64, i32 4483, i64 0, i8* null, i64* %log_size)
          to label %invoke.cont67 unwind label %lpad44

invoke.cont67:                                    ; preds = %if.then63
  %65 = load i64, i64* %log_size, align 8
  %call69 = call noalias i8* @malloc(i64 %65) #3
  store i8* %call69, i8** %log, align 8
  %clProgram70 = getelementptr inbounds %struct.OpenCLSetup, %struct.OpenCLSetup* %this1, i32 0, i32 2
  %66 = load %struct._cl_program*, %struct._cl_program** %clProgram70, align 8
  %67 = load %struct._cl_device_id**, %struct._cl_device_id*** %clDevices, align 8
  %68 = load i32, i32* %device.addr, align 4
  %idxprom71 = sext i32 %68 to i64
  %arrayidx72 = getelementptr inbounds %struct._cl_device_id*, %struct._cl_device_id** %67, i64 %idxprom71
  %69 = load %struct._cl_device_id*, %struct._cl_device_id** %arrayidx72, align 8
  %70 = load i64, i64* %log_size, align 8
  %71 = load i8*, i8** %log, align 8
  %call74 = invoke i32 @clGetProgramBuildInfo(%struct._cl_program* %66, %struct._cl_device_id* %69, i32 4483, i64 %70, i8* %71, i64* null)
          to label %invoke.cont73 unwind label %lpad44

invoke.cont73:                                    ; preds = %invoke.cont67
  %72 = load %struct._IO_FILE*, %struct._IO_FILE** @stderr, align 8
  %73 = load i8*, i8** %log, align 8
  %call76 = invoke i32 (%struct._IO_FILE*, i8*, ...) @fprintf(%struct._IO_FILE* %72, i8* getelementptr inbounds ([4 x i8], [4 x i8]* @.str.24, i64 0, i64 0), i8* %73)
          to label %invoke.cont75 unwind label %lpad44

invoke.cont75:                                    ; preds = %invoke.cont73
  br label %if.end77

if.end77:                                         ; preds = %invoke.cont75, %invoke.cont60
  %74 = load i32, i32* %clStatus, align 4
  %cmp78 = icmp ne i32 %74, 0
  br i1 %cmp78, label %if.then79, label %if.end82

if.then79:                                        ; preds = %if.end77
  %75 = load %struct._IO_FILE*, %struct._IO_FILE** @stderr, align 8
  %76 = load i32, i32* %clStatus, align 4
  %call81 = invoke i32 (%struct._IO_FILE*, i8*, ...) @fprintf(%struct._IO_FILE* %75, i8* getelementptr inbounds ([29 x i8], [29 x i8]* @.str.1, i64 0, i64 0), i32 %76, i8* getelementptr inbounds ([16 x i8], [16 x i8]* @.str.20, i64 0, i64 0), i32 106)
          to label %invoke.cont80 unwind label %lpad44

invoke.cont80:                                    ; preds = %if.then79
  call void @exit(i32 -1) #16
  unreachable

if.end82:                                         ; preds = %if.end77
  %clProgram83 = getelementptr inbounds %struct.OpenCLSetup, %struct.OpenCLSetup* %this1, i32 0, i32 2
  %77 = load %struct._cl_program*, %struct._cl_program** %clProgram83, align 8
  %call85 = invoke %struct._cl_kernel* @clCreateKernel(%struct._cl_program* %77, i8* getelementptr inbounds ([23 x i8], [23 x i8]* @.str.29, i64 0, i64 0), i32* %clStatus)
          to label %invoke.cont84 unwind label %lpad44

invoke.cont84:                                    ; preds = %if.end82
  %clKernel_0 = getelementptr inbounds %struct.OpenCLSetup, %struct.OpenCLSetup* %this1, i32 0, i32 3
  store %struct._cl_kernel* %call85, %struct._cl_kernel** %clKernel_0, align 8
  %clProgram86 = getelementptr inbounds %struct.OpenCLSetup, %struct.OpenCLSetup* %this1, i32 0, i32 2
  %78 = load %struct._cl_program*, %struct._cl_program** %clProgram86, align 8
  %call88 = invoke %struct._cl_kernel* @clCreateKernel(%struct._cl_program* %78, i8* getelementptr inbounds ([17 x i8], [17 x i8]* @.str.30, i64 0, i64 0), i32* %clStatus)
          to label %invoke.cont87 unwind label %lpad44

invoke.cont87:                                    ; preds = %invoke.cont84
  %clKernel_1 = getelementptr inbounds %struct.OpenCLSetup, %struct.OpenCLSetup* %this1, i32 0, i32 4
  store %struct._cl_kernel* %call88, %struct._cl_kernel** %clKernel_1, align 8
  %clProgram89 = getelementptr inbounds %struct.OpenCLSetup, %struct.OpenCLSetup* %this1, i32 0, i32 2
  %79 = load %struct._cl_program*, %struct._cl_program** %clProgram89, align 8
  %call91 = invoke %struct._cl_kernel* @clCreateKernel(%struct._cl_program* %79, i8* getelementptr inbounds ([21 x i8], [21 x i8]* @.str.31, i64 0, i64 0), i32* %clStatus)
          to label %invoke.cont90 unwind label %lpad44

invoke.cont90:                                    ; preds = %invoke.cont87
  %clKernel_2 = getelementptr inbounds %struct.OpenCLSetup, %struct.OpenCLSetup* %this1, i32 0, i32 5
  store %struct._cl_kernel* %call91, %struct._cl_kernel** %clKernel_2, align 8
  %80 = load i32, i32* %clStatus, align 4
  %cmp92 = icmp ne i32 %80, 0
  br i1 %cmp92, label %if.then93, label %if.end96

if.then93:                                        ; preds = %invoke.cont90
  %81 = load %struct._IO_FILE*, %struct._IO_FILE** @stderr, align 8
  %82 = load i32, i32* %clStatus, align 4
  %call95 = invoke i32 (%struct._IO_FILE*, i8*, ...) @fprintf(%struct._IO_FILE* %81, i8* getelementptr inbounds ([29 x i8], [29 x i8]* @.str.1, i64 0, i64 0), i32 %82, i8* getelementptr inbounds ([16 x i8], [16 x i8]* @.str.20, i64 0, i64 0), i32 113)
          to label %invoke.cont94 unwind label %lpad44

invoke.cont94:                                    ; preds = %if.then93
  call void @exit(i32 -1) #16
  unreachable

if.end96:                                         ; preds = %invoke.cont90
  call void @_ZNSt7__cxx1112basic_stringIcSt11char_traitsIcESaIcEED1Ev(%"class.std::__cxx11::basic_string"* %binary_file) #3
  ret void

eh.resume:                                        ; preds = %lpad44, %lpad20, %lpad
  %exn = load i8*, i8** %exn.slot, align 8
  %sel = load i32, i32* %ehselector.slot, align 4
  %lpad.val = insertvalue { i8*, i32 } undef, i8* %exn, 0
  %lpad.val97 = insertvalue { i8*, i32 } %lpad.val, i32 %sel, 1
  resume { i8*, i32 } %lpad.val97
}

; Function Attrs: noinline nounwind optnone uwtable
define linkonce_odr dso_local void @_ZN5TimerC2Ev(%struct.Timer* %this) unnamed_addr #5 comdat align 2 {
entry:
  %this.addr = alloca %struct.Timer*, align 8
  store %struct.Timer* %this, %struct.Timer** %this.addr, align 8
  %this1 = load %struct.Timer*, %struct.Timer** %this.addr, align 8
  %startTime = getelementptr inbounds %struct.Timer, %struct.Timer* %this1, i32 0, i32 0
  call void @_ZNSt3mapINSt7__cxx1112basic_stringIcSt11char_traitsIcESaIcEEEdSt4lessIS5_ESaISt4pairIKS5_dEEEC2Ev(%"class.std::map"* %startTime) #3
  %stopTime = getelementptr inbounds %struct.Timer, %struct.Timer* %this1, i32 0, i32 1
  call void @_ZNSt3mapINSt7__cxx1112basic_stringIcSt11char_traitsIcESaIcEEEdSt4lessIS5_ESaISt4pairIKS5_dEEEC2Ev(%"class.std::map"* %stopTime) #3
  %time = getelementptr inbounds %struct.Timer, %struct.Timer* %this1, i32 0, i32 2
  call void @_ZNSt3mapINSt7__cxx1112basic_stringIcSt11char_traitsIcESaIcEEEdSt4lessIS5_ESaISt4pairIKS5_dEEEC2Ev(%"class.std::map"* %time) #3
  ret void
}

; Function Attrs: noinline optnone uwtable
define linkonce_odr dso_local void @_ZN5Timer5startENSt7__cxx1112basic_stringIcSt11char_traitsIcESaIcEEE(%struct.Timer* %this, %"class.std::__cxx11::basic_string"* %name) #6 comdat align 2 {
entry:
  %this.addr = alloca %struct.Timer*, align 8
  store %struct.Timer* %this, %struct.Timer** %this.addr, align 8
  %this1 = load %struct.Timer*, %struct.Timer** %this.addr, align 8
  %time = getelementptr inbounds %struct.Timer, %struct.Timer* %this1, i32 0, i32 2
  %call = call i64 @_ZNKSt3mapINSt7__cxx1112basic_stringIcSt11char_traitsIcESaIcEEEdSt4lessIS5_ESaISt4pairIKS5_dEEE5countERS9_(%"class.std::map"* %time, %"class.std::__cxx11::basic_string"* dereferenceable(32) %name)
  %tobool = icmp ne i64 %call, 0
  br i1 %tobool, label %if.end, label %if.then

if.then:                                          ; preds = %entry
  %time2 = getelementptr inbounds %struct.Timer, %struct.Timer* %this1, i32 0, i32 2
  %call3 = call dereferenceable(8) double* @_ZNSt3mapINSt7__cxx1112basic_stringIcSt11char_traitsIcESaIcEEEdSt4lessIS5_ESaISt4pairIKS5_dEEEixERS9_(%"class.std::map"* %time2, %"class.std::__cxx11::basic_string"* dereferenceable(32) %name)
  store double 0.000000e+00, double* %call3, align 8
  br label %if.end

if.end:                                           ; preds = %if.then, %entry
  %call4 = call double @_ZN10aocl_utils19getCurrentTimestampEv()
  %startTime = getelementptr inbounds %struct.Timer, %struct.Timer* %this1, i32 0, i32 0
  %call5 = call dereferenceable(8) double* @_ZNSt3mapINSt7__cxx1112basic_stringIcSt11char_traitsIcESaIcEEEdSt4lessIS5_ESaISt4pairIKS5_dEEEixERS9_(%"class.std::map"* %startTime, %"class.std::__cxx11::basic_string"* dereferenceable(32) %name)
  store double %call4, double* %call5, align 8
  ret void
}

; Function Attrs: nounwind
declare dso_local void @_ZNSaIcEC1Ev(%"class.std::allocator.0"*) unnamed_addr #2

declare dso_local void @_ZNSt7__cxx1112basic_stringIcSt11char_traitsIcESaIcEEC1EPKcRKS3_(%"class.std::__cxx11::basic_string"*, i8*, %"class.std::allocator.0"* dereferenceable(1)) unnamed_addr #1

declare dso_local i32 @__gxx_personality_v0(...)

; Function Attrs: nounwind
declare dso_local void @_ZNSt7__cxx1112basic_stringIcSt11char_traitsIcESaIcEED1Ev(%"class.std::__cxx11::basic_string"*) unnamed_addr #2

; Function Attrs: nounwind
declare dso_local void @_ZNSaIcED1Ev(%"class.std::allocator.0"*) unnamed_addr #2

; Function Attrs: nounwind
declare dso_local noalias i8* @malloc(i64) #2

declare dso_local %struct._cl_mem* @clCreateBuffer(%struct._cl_context*, i64, i64, i8*, i32*) #1

declare dso_local i32 @clFinish(%struct._cl_command_queue*) #1

declare dso_local i32 @fprintf(%struct._IO_FILE*, i8*, ...) #1

; Function Attrs: noreturn nounwind
declare dso_local void @exit(i32) #7

; Function Attrs: noinline optnone uwtable
define linkonce_odr dso_local void @_ZN5Timer4stopENSt7__cxx1112basic_stringIcSt11char_traitsIcESaIcEEE(%struct.Timer* %this, %"class.std::__cxx11::basic_string"* %name) #6 comdat align 2 {
entry:
  %this.addr = alloca %struct.Timer*, align 8
  store %struct.Timer* %this, %struct.Timer** %this.addr, align 8
  %this1 = load %struct.Timer*, %struct.Timer** %this.addr, align 8
  %call = call double @_ZN10aocl_utils19getCurrentTimestampEv()
  %stopTime = getelementptr inbounds %struct.Timer, %struct.Timer* %this1, i32 0, i32 1
  %call2 = call dereferenceable(8) double* @_ZNSt3mapINSt7__cxx1112basic_stringIcSt11char_traitsIcESaIcEEEdSt4lessIS5_ESaISt4pairIKS5_dEEEixERS9_(%"class.std::map"* %stopTime, %"class.std::__cxx11::basic_string"* dereferenceable(32) %name)
  store double %call, double* %call2, align 8
  %stopTime3 = getelementptr inbounds %struct.Timer, %struct.Timer* %this1, i32 0, i32 1
  %call4 = call dereferenceable(8) double* @_ZNSt3mapINSt7__cxx1112basic_stringIcSt11char_traitsIcESaIcEEEdSt4lessIS5_ESaISt4pairIKS5_dEEEixERS9_(%"class.std::map"* %stopTime3, %"class.std::__cxx11::basic_string"* dereferenceable(32) %name)
  %0 = load double, double* %call4, align 8
  %startTime = getelementptr inbounds %struct.Timer, %struct.Timer* %this1, i32 0, i32 0
  %call5 = call dereferenceable(8) double* @_ZNSt3mapINSt7__cxx1112basic_stringIcSt11char_traitsIcESaIcEEEdSt4lessIS5_ESaISt4pairIKS5_dEEEixERS9_(%"class.std::map"* %startTime, %"class.std::__cxx11::basic_string"* dereferenceable(32) %name)
  %1 = load double, double* %call5, align 8
  %sub = fsub double %0, %1
  %time = getelementptr inbounds %struct.Timer, %struct.Timer* %this1, i32 0, i32 2
  %call6 = call dereferenceable(8) double* @_ZNSt3mapINSt7__cxx1112basic_stringIcSt11char_traitsIcESaIcEEEdSt4lessIS5_ESaISt4pairIKS5_dEEEixERS9_(%"class.std::map"* %time, %"class.std::__cxx11::basic_string"* dereferenceable(32) %name)
  %2 = load double, double* %call6, align 8
  %add = fadd double %2, %sub
  store double %add, double* %call6, align 8
  ret void
}

; Function Attrs: noinline optnone uwtable
define linkonce_odr dso_local void @_ZN5Timer5printENSt7__cxx1112basic_stringIcSt11char_traitsIcESaIcEEEi(%struct.Timer* %this, %"class.std::__cxx11::basic_string"* %name, i32 %REP) #6 comdat align 2 {
entry:
  %this.addr = alloca %struct.Timer*, align 8
  %REP.addr = alloca i32, align 4
  store %struct.Timer* %this, %struct.Timer** %this.addr, align 8
  store i32 %REP, i32* %REP.addr, align 4
  %this1 = load %struct.Timer*, %struct.Timer** %this.addr, align 8
  %call = call i8* @_ZNKSt7__cxx1112basic_stringIcSt11char_traitsIcESaIcEE5c_strEv(%"class.std::__cxx11::basic_string"* %name) #3
  %time = getelementptr inbounds %struct.Timer, %struct.Timer* %this1, i32 0, i32 2
  %call2 = call dereferenceable(8) double* @_ZNSt3mapINSt7__cxx1112basic_stringIcSt11char_traitsIcESaIcEEEdSt4lessIS5_ESaISt4pairIKS5_dEEEixERS9_(%"class.std::map"* %time, %"class.std::__cxx11::basic_string"* dereferenceable(32) %name)
  %0 = load double, double* %call2, align 8
  %mul = fmul double %0, 1.000000e+03
  %1 = load i32, i32* %REP.addr, align 4
  %conv = sitofp i32 %1 to double
  %div = fdiv double %mul, %conv
  %call3 = call i32 (i8*, ...) @printf(i8* getelementptr inbounds ([21 x i8], [21 x i8]* @.str.32, i64 0, i64 0), i8* %call, double %div)
  ret void
}

declare dso_local %struct._IO_FILE* @fopen(i8*, i8*) #1

declare dso_local i32 @printf(i8*, ...) #1

declare dso_local i32 @fscanf(%struct._IO_FILE*, i8*, ...) #1

declare dso_local i32 @clEnqueueWriteBuffer(%struct._cl_command_queue*, %struct._cl_mem*, i32, i64, i64, i8*, i32, %struct._cl_event**, %struct._cl_event**) #1

declare dso_local i32 @clSetKernelArg(%struct._cl_kernel*, i32, i64, i8*) #1

declare dso_local i32 @clEnqueueNDRangeKernel(%struct._cl_command_queue*, %struct._cl_kernel*, i32, i64*, i64*, i64*, i32, %struct._cl_event**, %struct._cl_event**) #1

declare dso_local i32 @clEnqueueReadBuffer(%struct._cl_command_queue*, %struct._cl_mem*, i32, i64, i64, i8*, i32, %struct._cl_event**, %struct._cl_event**) #1

; Function Attrs: nounwind
declare dso_local void @free(i8*) #2

declare dso_local i32 @clReleaseMemObject(%struct._cl_mem*) #1

; Function Attrs: noinline optnone uwtable
define linkonce_odr dso_local void @_ZN11OpenCLSetup7releaseEv(%struct.OpenCLSetup* %this) #6 comdat align 2 {
entry:
  %this.addr = alloca %struct.OpenCLSetup*, align 8
  store %struct.OpenCLSetup* %this, %struct.OpenCLSetup** %this.addr, align 8
  %this1 = load %struct.OpenCLSetup*, %struct.OpenCLSetup** %this.addr, align 8
  %clKernel_0 = getelementptr inbounds %struct.OpenCLSetup, %struct.OpenCLSetup* %this1, i32 0, i32 3
  %0 = load %struct._cl_kernel*, %struct._cl_kernel** %clKernel_0, align 8
  %call = call i32 @clReleaseKernel(%struct._cl_kernel* %0)
  %clKernel_1 = getelementptr inbounds %struct.OpenCLSetup, %struct.OpenCLSetup* %this1, i32 0, i32 4
  %1 = load %struct._cl_kernel*, %struct._cl_kernel** %clKernel_1, align 8
  %call2 = call i32 @clReleaseKernel(%struct._cl_kernel* %1)
  %clKernel_2 = getelementptr inbounds %struct.OpenCLSetup, %struct.OpenCLSetup* %this1, i32 0, i32 5
  %2 = load %struct._cl_kernel*, %struct._cl_kernel** %clKernel_2, align 8
  %call3 = call i32 @clReleaseKernel(%struct._cl_kernel* %2)
  %clProgram = getelementptr inbounds %struct.OpenCLSetup, %struct.OpenCLSetup* %this1, i32 0, i32 2
  %3 = load %struct._cl_program*, %struct._cl_program** %clProgram, align 8
  %call4 = call i32 @clReleaseProgram(%struct._cl_program* %3)
  %clCommandQueue = getelementptr inbounds %struct.OpenCLSetup, %struct.OpenCLSetup* %this1, i32 0, i32 1
  %4 = load %struct._cl_command_queue*, %struct._cl_command_queue** %clCommandQueue, align 8
  %call5 = call i32 @clReleaseCommandQueue(%struct._cl_command_queue* %4)
  %clContext = getelementptr inbounds %struct.OpenCLSetup, %struct.OpenCLSetup* %this1, i32 0, i32 0
  %5 = load %struct._cl_context*, %struct._cl_context** %clContext, align 8
  %call6 = call i32 @clReleaseContext(%struct._cl_context* %5)
  ret void
}

; Function Attrs: noinline nounwind optnone uwtable
define linkonce_odr dso_local void @_ZN5TimerD2Ev(%struct.Timer* %this) unnamed_addr #5 comdat align 2 {
entry:
  %this.addr = alloca %struct.Timer*, align 8
  store %struct.Timer* %this, %struct.Timer** %this.addr, align 8
  %this1 = load %struct.Timer*, %struct.Timer** %this.addr, align 8
  %time = getelementptr inbounds %struct.Timer, %struct.Timer* %this1, i32 0, i32 2
  call void @_ZNSt3mapINSt7__cxx1112basic_stringIcSt11char_traitsIcESaIcEEEdSt4lessIS5_ESaISt4pairIKS5_dEEED2Ev(%"class.std::map"* %time) #3
  %stopTime = getelementptr inbounds %struct.Timer, %struct.Timer* %this1, i32 0, i32 1
  call void @_ZNSt3mapINSt7__cxx1112basic_stringIcSt11char_traitsIcESaIcEEEdSt4lessIS5_ESaISt4pairIKS5_dEEED2Ev(%"class.std::map"* %stopTime) #3
  %startTime = getelementptr inbounds %struct.Timer, %struct.Timer* %this1, i32 0, i32 0
  call void @_ZNSt3mapINSt7__cxx1112basic_stringIcSt11char_traitsIcESaIcEEEdSt4lessIS5_ESaISt4pairIKS5_dEEED2Ev(%"class.std::map"* %startTime) #3
  ret void
}

declare dso_local %struct._cl_platform_id* @_ZN10aocl_utils12findPlatformEPKc(i8*) #1

declare dso_local i32 @clGetDeviceIDs(%struct._cl_platform_id*, i64, i32, %struct._cl_device_id**, i32*) #1

; Function Attrs: nounwind readnone speculatable
declare { i64, i1 } @llvm.umul.with.overflow.i64(i64, i64) #8

; Function Attrs: nobuiltin
declare dso_local noalias i8* @_Znam(i64) #9

declare dso_local void @_ZN10aocl_utils15getPlatformNameB5cxx11EP15_cl_platform_id(%"class.std::__cxx11::basic_string"* sret, %struct._cl_platform_id*) #1

; Function Attrs: nounwind
declare dso_local i8* @_ZNKSt7__cxx1112basic_stringIcSt11char_traitsIcESaIcEE5c_strEv(%"class.std::__cxx11::basic_string"*) #2

declare dso_local void @_ZN10aocl_utils13getDeviceNameB5cxx11EP13_cl_device_id(%"class.std::__cxx11::basic_string"* sret, %struct._cl_device_id*) #1

declare dso_local %struct._cl_context* @clCreateContext(i64*, i32, %struct._cl_device_id**, void (i8*, i8*, i64, i8*)*, i8*, i32*) #1

declare dso_local void @_ZN10aocl_utils18oclContextCallbackEPKcPKvmPv(i8*, i8*, i64, i8*) #1

declare dso_local i32 @clGetDeviceInfo(%struct._cl_device_id*, i32, i64, i8*, i64*) #1

declare dso_local %struct._cl_command_queue* @clCreateCommandQueue(%struct._cl_context*, %struct._cl_device_id*, i64, i32*) #1

declare dso_local void @_ZN10aocl_utils18getBoardBinaryFileB5cxx11EPKcP13_cl_device_id(%"class.std::__cxx11::basic_string"* sret, i8*, %struct._cl_device_id*) #1

declare dso_local %struct._cl_program* @_ZN10aocl_utils23createProgramFromBinaryEP11_cl_contextPKcPKP13_cl_device_idj(%struct._cl_context*, i8*, %struct._cl_device_id**, i32) #1

; Function Attrs: nounwind
declare dso_local i32 @sprintf(i8*, i8*, ...) #2

declare dso_local i32 @clBuildProgram(%struct._cl_program*, i32, %struct._cl_device_id**, i8*, void (%struct._cl_program*, i8*)*, i8*) #1

declare dso_local i32 @clGetProgramBuildInfo(%struct._cl_program*, %struct._cl_device_id*, i32, i64, i8*, i64*) #1

declare dso_local %struct._cl_kernel* @clCreateKernel(%struct._cl_program*, i8*, i32*) #1

; Function Attrs: noinline nounwind optnone uwtable
define linkonce_odr dso_local void @_ZNSt3mapINSt7__cxx1112basic_stringIcSt11char_traitsIcESaIcEEEdSt4lessIS5_ESaISt4pairIKS5_dEEEC2Ev(%"class.std::map"* %this) unnamed_addr #5 comdat align 2 personality i8* bitcast (i32 (...)* @__gxx_personality_v0 to i8*) {
entry:
  %this.addr = alloca %"class.std::map"*, align 8
  store %"class.std::map"* %this, %"class.std::map"** %this.addr, align 8
  %this1 = load %"class.std::map"*, %"class.std::map"** %this.addr, align 8
  %_M_t = getelementptr inbounds %"class.std::map", %"class.std::map"* %this1, i32 0, i32 0
  invoke void @_ZNSt8_Rb_treeINSt7__cxx1112basic_stringIcSt11char_traitsIcESaIcEEESt4pairIKS5_dESt10_Select1stIS8_ESt4lessIS5_ESaIS8_EEC2Ev(%"class.std::_Rb_tree"* %_M_t)
          to label %invoke.cont unwind label %terminate.lpad

invoke.cont:                                      ; preds = %entry
  ret void

terminate.lpad:                                   ; preds = %entry
  %0 = landingpad { i8*, i32 }
          catch i8* null
  %1 = extractvalue { i8*, i32 } %0, 0
  call void @__clang_call_terminate(i8* %1) #16
  unreachable
}

; Function Attrs: noinline optnone uwtable
define linkonce_odr dso_local void @_ZNSt8_Rb_treeINSt7__cxx1112basic_stringIcSt11char_traitsIcESaIcEEESt4pairIKS5_dESt10_Select1stIS8_ESt4lessIS5_ESaIS8_EEC2Ev(%"class.std::_Rb_tree"* %this) unnamed_addr #6 comdat align 2 {
entry:
  %this.addr = alloca %"class.std::_Rb_tree"*, align 8
  store %"class.std::_Rb_tree"* %this, %"class.std::_Rb_tree"** %this.addr, align 8
  %this1 = load %"class.std::_Rb_tree"*, %"class.std::_Rb_tree"** %this.addr, align 8
  %_M_impl = getelementptr inbounds %"class.std::_Rb_tree", %"class.std::_Rb_tree"* %this1, i32 0, i32 0
  call void @_ZNSt8_Rb_treeINSt7__cxx1112basic_stringIcSt11char_traitsIcESaIcEEESt4pairIKS5_dESt10_Select1stIS8_ESt4lessIS5_ESaIS8_EE13_Rb_tree_implISC_Lb1EEC2Ev(%"struct.std::_Rb_tree<std::__cxx11::basic_string<char>, std::pair<const std::__cxx11::basic_string<char>, double>, std::_Select1st<std::pair<const std::__cxx11::basic_string<char>, double> >, std::less<std::__cxx11::basic_string<char> >, std::allocator<std::pair<const std::__cxx11::basic_string<char>, double> > >::_Rb_tree_impl"* %_M_impl)
  ret void
}

; Function Attrs: noinline noreturn nounwind
define linkonce_odr hidden void @__clang_call_terminate(i8*) #10 comdat {
  %2 = call i8* @__cxa_begin_catch(i8* %0) #3
  call void @_ZSt9terminatev() #16
  unreachable
}

declare dso_local i8* @__cxa_begin_catch(i8*)

declare dso_local void @_ZSt9terminatev()

; Function Attrs: noinline optnone uwtable
define linkonce_odr dso_local void @_ZNSt8_Rb_treeINSt7__cxx1112basic_stringIcSt11char_traitsIcESaIcEEESt4pairIKS5_dESt10_Select1stIS8_ESt4lessIS5_ESaIS8_EE13_Rb_tree_implISC_Lb1EEC2Ev(%"struct.std::_Rb_tree<std::__cxx11::basic_string<char>, std::pair<const std::__cxx11::basic_string<char>, double>, std::_Select1st<std::pair<const std::__cxx11::basic_string<char>, double> >, std::less<std::__cxx11::basic_string<char> >, std::allocator<std::pair<const std::__cxx11::basic_string<char>, double> > >::_Rb_tree_impl"* %this) unnamed_addr #6 comdat align 2 personality i8* bitcast (i32 (...)* @__gxx_personality_v0 to i8*) {
entry:
  %this.addr = alloca %"struct.std::_Rb_tree<std::__cxx11::basic_string<char>, std::pair<const std::__cxx11::basic_string<char>, double>, std::_Select1st<std::pair<const std::__cxx11::basic_string<char>, double> >, std::less<std::__cxx11::basic_string<char> >, std::allocator<std::pair<const std::__cxx11::basic_string<char>, double> > >::_Rb_tree_impl"*, align 8
  %exn.slot = alloca i8*
  %ehselector.slot = alloca i32
  store %"struct.std::_Rb_tree<std::__cxx11::basic_string<char>, std::pair<const std::__cxx11::basic_string<char>, double>, std::_Select1st<std::pair<const std::__cxx11::basic_string<char>, double> >, std::less<std::__cxx11::basic_string<char> >, std::allocator<std::pair<const std::__cxx11::basic_string<char>, double> > >::_Rb_tree_impl"* %this, %"struct.std::_Rb_tree<std::__cxx11::basic_string<char>, std::pair<const std::__cxx11::basic_string<char>, double>, std::_Select1st<std::pair<const std::__cxx11::basic_string<char>, double> >, std::less<std::__cxx11::basic_string<char> >, std::allocator<std::pair<const std::__cxx11::basic_string<char>, double> > >::_Rb_tree_impl"** %this.addr, align 8
  %this1 = load %"struct.std::_Rb_tree<std::__cxx11::basic_string<char>, std::pair<const std::__cxx11::basic_string<char>, double>, std::_Select1st<std::pair<const std::__cxx11::basic_string<char>, double> >, std::less<std::__cxx11::basic_string<char> >, std::allocator<std::pair<const std::__cxx11::basic_string<char>, double> > >::_Rb_tree_impl"*, %"struct.std::_Rb_tree<std::__cxx11::basic_string<char>, std::pair<const std::__cxx11::basic_string<char>, double>, std::_Select1st<std::pair<const std::__cxx11::basic_string<char>, double> >, std::less<std::__cxx11::basic_string<char> >, std::allocator<std::pair<const std::__cxx11::basic_string<char>, double> > >::_Rb_tree_impl"** %this.addr, align 8
  %0 = bitcast %"struct.std::_Rb_tree<std::__cxx11::basic_string<char>, std::pair<const std::__cxx11::basic_string<char>, double>, std::_Select1st<std::pair<const std::__cxx11::basic_string<char>, double> >, std::less<std::__cxx11::basic_string<char> >, std::allocator<std::pair<const std::__cxx11::basic_string<char>, double> > >::_Rb_tree_impl"* %this1 to %"class.std::allocator"*
  call void @_ZNSaISt13_Rb_tree_nodeISt4pairIKNSt7__cxx1112basic_stringIcSt11char_traitsIcESaIcEEEdEEEC2Ev(%"class.std::allocator"* %0) #3
  %_M_key_compare = getelementptr inbounds %"struct.std::_Rb_tree<std::__cxx11::basic_string<char>, std::pair<const std::__cxx11::basic_string<char>, double>, std::_Select1st<std::pair<const std::__cxx11::basic_string<char>, double> >, std::less<std::__cxx11::basic_string<char> >, std::allocator<std::pair<const std::__cxx11::basic_string<char>, double> > >::_Rb_tree_impl", %"struct.std::_Rb_tree<std::__cxx11::basic_string<char>, std::pair<const std::__cxx11::basic_string<char>, double>, std::_Select1st<std::pair<const std::__cxx11::basic_string<char>, double> >, std::less<std::__cxx11::basic_string<char> >, std::allocator<std::pair<const std::__cxx11::basic_string<char>, double> > >::_Rb_tree_impl"* %this1, i32 0, i32 0
  %_M_header = getelementptr inbounds %"struct.std::_Rb_tree<std::__cxx11::basic_string<char>, std::pair<const std::__cxx11::basic_string<char>, double>, std::_Select1st<std::pair<const std::__cxx11::basic_string<char>, double> >, std::less<std::__cxx11::basic_string<char> >, std::allocator<std::pair<const std::__cxx11::basic_string<char>, double> > >::_Rb_tree_impl", %"struct.std::_Rb_tree<std::__cxx11::basic_string<char>, std::pair<const std::__cxx11::basic_string<char>, double>, std::_Select1st<std::pair<const std::__cxx11::basic_string<char>, double> >, std::less<std::__cxx11::basic_string<char> >, std::allocator<std::pair<const std::__cxx11::basic_string<char>, double> > >::_Rb_tree_impl"* %this1, i32 0, i32 1
  %1 = bitcast %"struct.std::_Rb_tree_node_base"* %_M_header to i8*
  call void @llvm.memset.p0i8.i64(i8* align 8 %1, i8 0, i64 32, i1 false)
  %_M_node_count = getelementptr inbounds %"struct.std::_Rb_tree<std::__cxx11::basic_string<char>, std::pair<const std::__cxx11::basic_string<char>, double>, std::_Select1st<std::pair<const std::__cxx11::basic_string<char>, double> >, std::less<std::__cxx11::basic_string<char> >, std::allocator<std::pair<const std::__cxx11::basic_string<char>, double> > >::_Rb_tree_impl", %"struct.std::_Rb_tree<std::__cxx11::basic_string<char>, std::pair<const std::__cxx11::basic_string<char>, double>, std::_Select1st<std::pair<const std::__cxx11::basic_string<char>, double> >, std::less<std::__cxx11::basic_string<char> >, std::allocator<std::pair<const std::__cxx11::basic_string<char>, double> > >::_Rb_tree_impl"* %this1, i32 0, i32 2
  store i64 0, i64* %_M_node_count, align 8
  invoke void @_ZNSt8_Rb_treeINSt7__cxx1112basic_stringIcSt11char_traitsIcESaIcEEESt4pairIKS5_dESt10_Select1stIS8_ESt4lessIS5_ESaIS8_EE13_Rb_tree_implISC_Lb1EE13_M_initializeEv(%"struct.std::_Rb_tree<std::__cxx11::basic_string<char>, std::pair<const std::__cxx11::basic_string<char>, double>, std::_Select1st<std::pair<const std::__cxx11::basic_string<char>, double> >, std::less<std::__cxx11::basic_string<char> >, std::allocator<std::pair<const std::__cxx11::basic_string<char>, double> > >::_Rb_tree_impl"* %this1)
          to label %invoke.cont unwind label %lpad

invoke.cont:                                      ; preds = %entry
  ret void

lpad:                                             ; preds = %entry
  %2 = landingpad { i8*, i32 }
          cleanup
  %3 = extractvalue { i8*, i32 } %2, 0
  store i8* %3, i8** %exn.slot, align 8
  %4 = extractvalue { i8*, i32 } %2, 1
  store i32 %4, i32* %ehselector.slot, align 4
  %5 = bitcast %"struct.std::_Rb_tree<std::__cxx11::basic_string<char>, std::pair<const std::__cxx11::basic_string<char>, double>, std::_Select1st<std::pair<const std::__cxx11::basic_string<char>, double> >, std::less<std::__cxx11::basic_string<char> >, std::allocator<std::pair<const std::__cxx11::basic_string<char>, double> > >::_Rb_tree_impl"* %this1 to %"class.std::allocator"*
  call void @_ZNSaISt13_Rb_tree_nodeISt4pairIKNSt7__cxx1112basic_stringIcSt11char_traitsIcESaIcEEEdEEED2Ev(%"class.std::allocator"* %5) #3
  br label %eh.resume

eh.resume:                                        ; preds = %lpad
  %exn = load i8*, i8** %exn.slot, align 8
  %sel = load i32, i32* %ehselector.slot, align 4
  %lpad.val = insertvalue { i8*, i32 } undef, i8* %exn, 0
  %lpad.val2 = insertvalue { i8*, i32 } %lpad.val, i32 %sel, 1
  resume { i8*, i32 } %lpad.val2
}

; Function Attrs: noinline nounwind optnone uwtable
define linkonce_odr dso_local void @_ZNSaISt13_Rb_tree_nodeISt4pairIKNSt7__cxx1112basic_stringIcSt11char_traitsIcESaIcEEEdEEEC2Ev(%"class.std::allocator"* %this) unnamed_addr #5 comdat align 2 {
entry:
  %this.addr = alloca %"class.std::allocator"*, align 8
  store %"class.std::allocator"* %this, %"class.std::allocator"** %this.addr, align 8
  %this1 = load %"class.std::allocator"*, %"class.std::allocator"** %this.addr, align 8
  %0 = bitcast %"class.std::allocator"* %this1 to %"class.__gnu_cxx::new_allocator"*
  call void @_ZN9__gnu_cxx13new_allocatorISt13_Rb_tree_nodeISt4pairIKNSt7__cxx1112basic_stringIcSt11char_traitsIcESaIcEEEdEEEC2Ev(%"class.__gnu_cxx::new_allocator"* %0) #3
  ret void
}

; Function Attrs: argmemonly nounwind
declare void @llvm.memset.p0i8.i64(i8* nocapture writeonly, i8, i64, i1) #11

; Function Attrs: noinline nounwind optnone uwtable
define linkonce_odr dso_local void @_ZNSt8_Rb_treeINSt7__cxx1112basic_stringIcSt11char_traitsIcESaIcEEESt4pairIKS5_dESt10_Select1stIS8_ESt4lessIS5_ESaIS8_EE13_Rb_tree_implISC_Lb1EE13_M_initializeEv(%"struct.std::_Rb_tree<std::__cxx11::basic_string<char>, std::pair<const std::__cxx11::basic_string<char>, double>, std::_Select1st<std::pair<const std::__cxx11::basic_string<char>, double> >, std::less<std::__cxx11::basic_string<char> >, std::allocator<std::pair<const std::__cxx11::basic_string<char>, double> > >::_Rb_tree_impl"* %this) #5 comdat align 2 {
entry:
  %this.addr = alloca %"struct.std::_Rb_tree<std::__cxx11::basic_string<char>, std::pair<const std::__cxx11::basic_string<char>, double>, std::_Select1st<std::pair<const std::__cxx11::basic_string<char>, double> >, std::less<std::__cxx11::basic_string<char> >, std::allocator<std::pair<const std::__cxx11::basic_string<char>, double> > >::_Rb_tree_impl"*, align 8
  store %"struct.std::_Rb_tree<std::__cxx11::basic_string<char>, std::pair<const std::__cxx11::basic_string<char>, double>, std::_Select1st<std::pair<const std::__cxx11::basic_string<char>, double> >, std::less<std::__cxx11::basic_string<char> >, std::allocator<std::pair<const std::__cxx11::basic_string<char>, double> > >::_Rb_tree_impl"* %this, %"struct.std::_Rb_tree<std::__cxx11::basic_string<char>, std::pair<const std::__cxx11::basic_string<char>, double>, std::_Select1st<std::pair<const std::__cxx11::basic_string<char>, double> >, std::less<std::__cxx11::basic_string<char> >, std::allocator<std::pair<const std::__cxx11::basic_string<char>, double> > >::_Rb_tree_impl"** %this.addr, align 8
  %this1 = load %"struct.std::_Rb_tree<std::__cxx11::basic_string<char>, std::pair<const std::__cxx11::basic_string<char>, double>, std::_Select1st<std::pair<const std::__cxx11::basic_string<char>, double> >, std::less<std::__cxx11::basic_string<char> >, std::allocator<std::pair<const std::__cxx11::basic_string<char>, double> > >::_Rb_tree_impl"*, %"struct.std::_Rb_tree<std::__cxx11::basic_string<char>, std::pair<const std::__cxx11::basic_string<char>, double>, std::_Select1st<std::pair<const std::__cxx11::basic_string<char>, double> >, std::less<std::__cxx11::basic_string<char> >, std::allocator<std::pair<const std::__cxx11::basic_string<char>, double> > >::_Rb_tree_impl"** %this.addr, align 8
  %_M_header = getelementptr inbounds %"struct.std::_Rb_tree<std::__cxx11::basic_string<char>, std::pair<const std::__cxx11::basic_string<char>, double>, std::_Select1st<std::pair<const std::__cxx11::basic_string<char>, double> >, std::less<std::__cxx11::basic_string<char> >, std::allocator<std::pair<const std::__cxx11::basic_string<char>, double> > >::_Rb_tree_impl", %"struct.std::_Rb_tree<std::__cxx11::basic_string<char>, std::pair<const std::__cxx11::basic_string<char>, double>, std::_Select1st<std::pair<const std::__cxx11::basic_string<char>, double> >, std::less<std::__cxx11::basic_string<char> >, std::allocator<std::pair<const std::__cxx11::basic_string<char>, double> > >::_Rb_tree_impl"* %this1, i32 0, i32 1
  %_M_color = getelementptr inbounds %"struct.std::_Rb_tree_node_base", %"struct.std::_Rb_tree_node_base"* %_M_header, i32 0, i32 0
  store i32 0, i32* %_M_color, align 8
  %_M_header2 = getelementptr inbounds %"struct.std::_Rb_tree<std::__cxx11::basic_string<char>, std::pair<const std::__cxx11::basic_string<char>, double>, std::_Select1st<std::pair<const std::__cxx11::basic_string<char>, double> >, std::less<std::__cxx11::basic_string<char> >, std::allocator<std::pair<const std::__cxx11::basic_string<char>, double> > >::_Rb_tree_impl", %"struct.std::_Rb_tree<std::__cxx11::basic_string<char>, std::pair<const std::__cxx11::basic_string<char>, double>, std::_Select1st<std::pair<const std::__cxx11::basic_string<char>, double> >, std::less<std::__cxx11::basic_string<char> >, std::allocator<std::pair<const std::__cxx11::basic_string<char>, double> > >::_Rb_tree_impl"* %this1, i32 0, i32 1
  %_M_parent = getelementptr inbounds %"struct.std::_Rb_tree_node_base", %"struct.std::_Rb_tree_node_base"* %_M_header2, i32 0, i32 1
  store %"struct.std::_Rb_tree_node_base"* null, %"struct.std::_Rb_tree_node_base"** %_M_parent, align 8
  %_M_header3 = getelementptr inbounds %"struct.std::_Rb_tree<std::__cxx11::basic_string<char>, std::pair<const std::__cxx11::basic_string<char>, double>, std::_Select1st<std::pair<const std::__cxx11::basic_string<char>, double> >, std::less<std::__cxx11::basic_string<char> >, std::allocator<std::pair<const std::__cxx11::basic_string<char>, double> > >::_Rb_tree_impl", %"struct.std::_Rb_tree<std::__cxx11::basic_string<char>, std::pair<const std::__cxx11::basic_string<char>, double>, std::_Select1st<std::pair<const std::__cxx11::basic_string<char>, double> >, std::less<std::__cxx11::basic_string<char> >, std::allocator<std::pair<const std::__cxx11::basic_string<char>, double> > >::_Rb_tree_impl"* %this1, i32 0, i32 1
  %_M_header4 = getelementptr inbounds %"struct.std::_Rb_tree<std::__cxx11::basic_string<char>, std::pair<const std::__cxx11::basic_string<char>, double>, std::_Select1st<std::pair<const std::__cxx11::basic_string<char>, double> >, std::less<std::__cxx11::basic_string<char> >, std::allocator<std::pair<const std::__cxx11::basic_string<char>, double> > >::_Rb_tree_impl", %"struct.std::_Rb_tree<std::__cxx11::basic_string<char>, std::pair<const std::__cxx11::basic_string<char>, double>, std::_Select1st<std::pair<const std::__cxx11::basic_string<char>, double> >, std::less<std::__cxx11::basic_string<char> >, std::allocator<std::pair<const std::__cxx11::basic_string<char>, double> > >::_Rb_tree_impl"* %this1, i32 0, i32 1
  %_M_left = getelementptr inbounds %"struct.std::_Rb_tree_node_base", %"struct.std::_Rb_tree_node_base"* %_M_header4, i32 0, i32 2
  store %"struct.std::_Rb_tree_node_base"* %_M_header3, %"struct.std::_Rb_tree_node_base"** %_M_left, align 8
  %_M_header5 = getelementptr inbounds %"struct.std::_Rb_tree<std::__cxx11::basic_string<char>, std::pair<const std::__cxx11::basic_string<char>, double>, std::_Select1st<std::pair<const std::__cxx11::basic_string<char>, double> >, std::less<std::__cxx11::basic_string<char> >, std::allocator<std::pair<const std::__cxx11::basic_string<char>, double> > >::_Rb_tree_impl", %"struct.std::_Rb_tree<std::__cxx11::basic_string<char>, std::pair<const std::__cxx11::basic_string<char>, double>, std::_Select1st<std::pair<const std::__cxx11::basic_string<char>, double> >, std::less<std::__cxx11::basic_string<char> >, std::allocator<std::pair<const std::__cxx11::basic_string<char>, double> > >::_Rb_tree_impl"* %this1, i32 0, i32 1
  %_M_header6 = getelementptr inbounds %"struct.std::_Rb_tree<std::__cxx11::basic_string<char>, std::pair<const std::__cxx11::basic_string<char>, double>, std::_Select1st<std::pair<const std::__cxx11::basic_string<char>, double> >, std::less<std::__cxx11::basic_string<char> >, std::allocator<std::pair<const std::__cxx11::basic_string<char>, double> > >::_Rb_tree_impl", %"struct.std::_Rb_tree<std::__cxx11::basic_string<char>, std::pair<const std::__cxx11::basic_string<char>, double>, std::_Select1st<std::pair<const std::__cxx11::basic_string<char>, double> >, std::less<std::__cxx11::basic_string<char> >, std::allocator<std::pair<const std::__cxx11::basic_string<char>, double> > >::_Rb_tree_impl"* %this1, i32 0, i32 1
  %_M_right = getelementptr inbounds %"struct.std::_Rb_tree_node_base", %"struct.std::_Rb_tree_node_base"* %_M_header6, i32 0, i32 3
  store %"struct.std::_Rb_tree_node_base"* %_M_header5, %"struct.std::_Rb_tree_node_base"** %_M_right, align 8
  ret void
}

; Function Attrs: noinline nounwind optnone uwtable
define linkonce_odr dso_local void @_ZNSaISt13_Rb_tree_nodeISt4pairIKNSt7__cxx1112basic_stringIcSt11char_traitsIcESaIcEEEdEEED2Ev(%"class.std::allocator"* %this) unnamed_addr #5 comdat align 2 {
entry:
  %this.addr = alloca %"class.std::allocator"*, align 8
  store %"class.std::allocator"* %this, %"class.std::allocator"** %this.addr, align 8
  %this1 = load %"class.std::allocator"*, %"class.std::allocator"** %this.addr, align 8
  %0 = bitcast %"class.std::allocator"* %this1 to %"class.__gnu_cxx::new_allocator"*
  call void @_ZN9__gnu_cxx13new_allocatorISt13_Rb_tree_nodeISt4pairIKNSt7__cxx1112basic_stringIcSt11char_traitsIcESaIcEEEdEEED2Ev(%"class.__gnu_cxx::new_allocator"* %0) #3
  ret void
}

; Function Attrs: noinline nounwind optnone uwtable
define linkonce_odr dso_local void @_ZN9__gnu_cxx13new_allocatorISt13_Rb_tree_nodeISt4pairIKNSt7__cxx1112basic_stringIcSt11char_traitsIcESaIcEEEdEEEC2Ev(%"class.__gnu_cxx::new_allocator"* %this) unnamed_addr #5 comdat align 2 {
entry:
  %this.addr = alloca %"class.__gnu_cxx::new_allocator"*, align 8
  store %"class.__gnu_cxx::new_allocator"* %this, %"class.__gnu_cxx::new_allocator"** %this.addr, align 8
  %this1 = load %"class.__gnu_cxx::new_allocator"*, %"class.__gnu_cxx::new_allocator"** %this.addr, align 8
  ret void
}

; Function Attrs: noinline nounwind optnone uwtable
define linkonce_odr dso_local void @_ZN9__gnu_cxx13new_allocatorISt13_Rb_tree_nodeISt4pairIKNSt7__cxx1112basic_stringIcSt11char_traitsIcESaIcEEEdEEED2Ev(%"class.__gnu_cxx::new_allocator"* %this) unnamed_addr #5 comdat align 2 {
entry:
  %this.addr = alloca %"class.__gnu_cxx::new_allocator"*, align 8
  store %"class.__gnu_cxx::new_allocator"* %this, %"class.__gnu_cxx::new_allocator"** %this.addr, align 8
  %this1 = load %"class.__gnu_cxx::new_allocator"*, %"class.__gnu_cxx::new_allocator"** %this.addr, align 8
  ret void
}

; Function Attrs: noinline optnone uwtable
define linkonce_odr dso_local i64 @_ZNKSt3mapINSt7__cxx1112basic_stringIcSt11char_traitsIcESaIcEEEdSt4lessIS5_ESaISt4pairIKS5_dEEE5countERS9_(%"class.std::map"* %this, %"class.std::__cxx11::basic_string"* dereferenceable(32) %__x) #6 comdat align 2 {
entry:
  %this.addr = alloca %"class.std::map"*, align 8
  %__x.addr = alloca %"class.std::__cxx11::basic_string"*, align 8
  %ref.tmp = alloca %"struct.std::_Rb_tree_const_iterator", align 8
  %ref.tmp2 = alloca %"struct.std::_Rb_tree_const_iterator", align 8
  store %"class.std::map"* %this, %"class.std::map"** %this.addr, align 8
  store %"class.std::__cxx11::basic_string"* %__x, %"class.std::__cxx11::basic_string"** %__x.addr, align 8
  %this1 = load %"class.std::map"*, %"class.std::map"** %this.addr, align 8
  %_M_t = getelementptr inbounds %"class.std::map", %"class.std::map"* %this1, i32 0, i32 0
  %0 = load %"class.std::__cxx11::basic_string"*, %"class.std::__cxx11::basic_string"** %__x.addr, align 8
  %call = call %"struct.std::_Rb_tree_node_base"* @_ZNKSt8_Rb_treeINSt7__cxx1112basic_stringIcSt11char_traitsIcESaIcEEESt4pairIKS5_dESt10_Select1stIS8_ESt4lessIS5_ESaIS8_EE4findERS7_(%"class.std::_Rb_tree"* %_M_t, %"class.std::__cxx11::basic_string"* dereferenceable(32) %0)
  %coerce.dive = getelementptr inbounds %"struct.std::_Rb_tree_const_iterator", %"struct.std::_Rb_tree_const_iterator"* %ref.tmp, i32 0, i32 0
  store %"struct.std::_Rb_tree_node_base"* %call, %"struct.std::_Rb_tree_node_base"** %coerce.dive, align 8
  %_M_t3 = getelementptr inbounds %"class.std::map", %"class.std::map"* %this1, i32 0, i32 0
  %call4 = call %"struct.std::_Rb_tree_node_base"* @_ZNKSt8_Rb_treeINSt7__cxx1112basic_stringIcSt11char_traitsIcESaIcEEESt4pairIKS5_dESt10_Select1stIS8_ESt4lessIS5_ESaIS8_EE3endEv(%"class.std::_Rb_tree"* %_M_t3) #3
  %coerce.dive5 = getelementptr inbounds %"struct.std::_Rb_tree_const_iterator", %"struct.std::_Rb_tree_const_iterator"* %ref.tmp2, i32 0, i32 0
  store %"struct.std::_Rb_tree_node_base"* %call4, %"struct.std::_Rb_tree_node_base"** %coerce.dive5, align 8
  %call6 = call zeroext i1 @_ZNKSt23_Rb_tree_const_iteratorISt4pairIKNSt7__cxx1112basic_stringIcSt11char_traitsIcESaIcEEEdEEeqERKS9_(%"struct.std::_Rb_tree_const_iterator"* %ref.tmp, %"struct.std::_Rb_tree_const_iterator"* dereferenceable(8) %ref.tmp2) #3
  %1 = zext i1 %call6 to i64
  %cond = select i1 %call6, i32 0, i32 1
  %conv = sext i32 %cond to i64
  ret i64 %conv
}

; Function Attrs: noinline optnone uwtable
define linkonce_odr dso_local dereferenceable(8) double* @_ZNSt3mapINSt7__cxx1112basic_stringIcSt11char_traitsIcESaIcEEEdSt4lessIS5_ESaISt4pairIKS5_dEEEixERS9_(%"class.std::map"* %this, %"class.std::__cxx11::basic_string"* dereferenceable(32) %__k) #6 comdat align 2 {
entry:
  %this.addr = alloca %"class.std::map"*, align 8
  %__k.addr = alloca %"class.std::__cxx11::basic_string"*, align 8
  %__i = alloca %"struct.std::_Rb_tree_iterator", align 8
  %ref.tmp = alloca %"struct.std::_Rb_tree_iterator", align 8
  %ref.tmp5 = alloca %"struct.std::less", align 1
  %undef.agg.tmp = alloca %"struct.std::less", align 1
  %ref.tmp8 = alloca %"struct.std::_Rb_tree_iterator", align 8
  %agg.tmp = alloca %"struct.std::_Rb_tree_const_iterator", align 8
  %ref.tmp9 = alloca %"class.std::tuple", align 8
  %ref.tmp10 = alloca %"class.std::tuple.3", align 1
  store %"class.std::map"* %this, %"class.std::map"** %this.addr, align 8
  store %"class.std::__cxx11::basic_string"* %__k, %"class.std::__cxx11::basic_string"** %__k.addr, align 8
  %this1 = load %"class.std::map"*, %"class.std::map"** %this.addr, align 8
  %0 = load %"class.std::__cxx11::basic_string"*, %"class.std::__cxx11::basic_string"** %__k.addr, align 8
  %call = call %"struct.std::_Rb_tree_node_base"* @_ZNSt3mapINSt7__cxx1112basic_stringIcSt11char_traitsIcESaIcEEEdSt4lessIS5_ESaISt4pairIKS5_dEEE11lower_boundERS9_(%"class.std::map"* %this1, %"class.std::__cxx11::basic_string"* dereferenceable(32) %0)
  %coerce.dive = getelementptr inbounds %"struct.std::_Rb_tree_iterator", %"struct.std::_Rb_tree_iterator"* %__i, i32 0, i32 0
  store %"struct.std::_Rb_tree_node_base"* %call, %"struct.std::_Rb_tree_node_base"** %coerce.dive, align 8
  %call2 = call %"struct.std::_Rb_tree_node_base"* @_ZNSt3mapINSt7__cxx1112basic_stringIcSt11char_traitsIcESaIcEEEdSt4lessIS5_ESaISt4pairIKS5_dEEE3endEv(%"class.std::map"* %this1) #3
  %coerce.dive3 = getelementptr inbounds %"struct.std::_Rb_tree_iterator", %"struct.std::_Rb_tree_iterator"* %ref.tmp, i32 0, i32 0
  store %"struct.std::_Rb_tree_node_base"* %call2, %"struct.std::_Rb_tree_node_base"** %coerce.dive3, align 8
  %call4 = call zeroext i1 @_ZNKSt17_Rb_tree_iteratorISt4pairIKNSt7__cxx1112basic_stringIcSt11char_traitsIcESaIcEEEdEEeqERKS9_(%"struct.std::_Rb_tree_iterator"* %__i, %"struct.std::_Rb_tree_iterator"* dereferenceable(8) %ref.tmp) #3
  br i1 %call4, label %lor.end, label %lor.rhs

lor.rhs:                                          ; preds = %entry
  call void @_ZNKSt3mapINSt7__cxx1112basic_stringIcSt11char_traitsIcESaIcEEEdSt4lessIS5_ESaISt4pairIKS5_dEEE8key_compEv(%"class.std::map"* %this1)
  %1 = load %"class.std::__cxx11::basic_string"*, %"class.std::__cxx11::basic_string"** %__k.addr, align 8
  %call6 = call dereferenceable(40) %"struct.std::pair"* @_ZNKSt17_Rb_tree_iteratorISt4pairIKNSt7__cxx1112basic_stringIcSt11char_traitsIcESaIcEEEdEEdeEv(%"struct.std::_Rb_tree_iterator"* %__i) #3
  %first = getelementptr inbounds %"struct.std::pair", %"struct.std::pair"* %call6, i32 0, i32 0
  %call7 = call zeroext i1 @_ZNKSt4lessINSt7__cxx1112basic_stringIcSt11char_traitsIcESaIcEEEEclERKS5_S8_(%"struct.std::less"* %ref.tmp5, %"class.std::__cxx11::basic_string"* dereferenceable(32) %1, %"class.std::__cxx11::basic_string"* dereferenceable(32) %first)
  br label %lor.end

lor.end:                                          ; preds = %lor.rhs, %entry
  %2 = phi i1 [ true, %entry ], [ %call7, %lor.rhs ]
  br i1 %2, label %if.then, label %if.end

if.then:                                          ; preds = %lor.end
  %_M_t = getelementptr inbounds %"class.std::map", %"class.std::map"* %this1, i32 0, i32 0
  call void @_ZNSt23_Rb_tree_const_iteratorISt4pairIKNSt7__cxx1112basic_stringIcSt11char_traitsIcESaIcEEEdEEC2ERKSt17_Rb_tree_iteratorIS8_E(%"struct.std::_Rb_tree_const_iterator"* %agg.tmp, %"struct.std::_Rb_tree_iterator"* dereferenceable(8) %__i) #3
  %3 = load %"class.std::__cxx11::basic_string"*, %"class.std::__cxx11::basic_string"** %__k.addr, align 8
  call void @_ZNSt5tupleIJRKNSt7__cxx1112basic_stringIcSt11char_traitsIcESaIcEEEEEC2ES7_(%"class.std::tuple"* %ref.tmp9, %"class.std::__cxx11::basic_string"* dereferenceable(32) %3)
  %coerce.dive11 = getelementptr inbounds %"struct.std::_Rb_tree_const_iterator", %"struct.std::_Rb_tree_const_iterator"* %agg.tmp, i32 0, i32 0
  %4 = load %"struct.std::_Rb_tree_node_base"*, %"struct.std::_Rb_tree_node_base"** %coerce.dive11, align 8
  %call12 = call %"struct.std::_Rb_tree_node_base"* @_ZNSt8_Rb_treeINSt7__cxx1112basic_stringIcSt11char_traitsIcESaIcEEESt4pairIKS5_dESt10_Select1stIS8_ESt4lessIS5_ESaIS8_EE22_M_emplace_hint_uniqueIJRKSt21piecewise_construct_tSt5tupleIJRS7_EESJ_IJEEEEESt17_Rb_tree_iteratorIS8_ESt23_Rb_tree_const_iteratorIS8_EDpOT_(%"class.std::_Rb_tree"* %_M_t, %"struct.std::_Rb_tree_node_base"* %4, %"struct.std::piecewise_construct_t"* dereferenceable(1) @_ZStL19piecewise_construct, %"class.std::tuple"* dereferenceable(8) %ref.tmp9, %"class.std::tuple.3"* dereferenceable(1) %ref.tmp10)
  %coerce.dive13 = getelementptr inbounds %"struct.std::_Rb_tree_iterator", %"struct.std::_Rb_tree_iterator"* %ref.tmp8, i32 0, i32 0
  store %"struct.std::_Rb_tree_node_base"* %call12, %"struct.std::_Rb_tree_node_base"** %coerce.dive13, align 8
  %5 = bitcast %"struct.std::_Rb_tree_iterator"* %__i to i8*
  %6 = bitcast %"struct.std::_Rb_tree_iterator"* %ref.tmp8 to i8*
  call void @llvm.memcpy.p0i8.p0i8.i64(i8* align 8 %5, i8* align 8 %6, i64 8, i1 false)
  br label %if.end

if.end:                                           ; preds = %if.then, %lor.end
  %call14 = call dereferenceable(40) %"struct.std::pair"* @_ZNKSt17_Rb_tree_iteratorISt4pairIKNSt7__cxx1112basic_stringIcSt11char_traitsIcESaIcEEEdEEdeEv(%"struct.std::_Rb_tree_iterator"* %__i) #3
  %second = getelementptr inbounds %"struct.std::pair", %"struct.std::pair"* %call14, i32 0, i32 1
  ret double* %second
}

declare dso_local double @_ZN10aocl_utils19getCurrentTimestampEv() #1

; Function Attrs: noinline optnone uwtable
define linkonce_odr dso_local %"struct.std::_Rb_tree_node_base"* @_ZNKSt8_Rb_treeINSt7__cxx1112basic_stringIcSt11char_traitsIcESaIcEEESt4pairIKS5_dESt10_Select1stIS8_ESt4lessIS5_ESaIS8_EE4findERS7_(%"class.std::_Rb_tree"* %this, %"class.std::__cxx11::basic_string"* dereferenceable(32) %__k) #6 comdat align 2 {
entry:
  %retval = alloca %"struct.std::_Rb_tree_const_iterator", align 8
  %this.addr = alloca %"class.std::_Rb_tree"*, align 8
  %__k.addr = alloca %"class.std::__cxx11::basic_string"*, align 8
  %__j = alloca %"struct.std::_Rb_tree_const_iterator", align 8
  %ref.tmp = alloca %"struct.std::_Rb_tree_const_iterator", align 8
  store %"class.std::_Rb_tree"* %this, %"class.std::_Rb_tree"** %this.addr, align 8
  store %"class.std::__cxx11::basic_string"* %__k, %"class.std::__cxx11::basic_string"** %__k.addr, align 8
  %this1 = load %"class.std::_Rb_tree"*, %"class.std::_Rb_tree"** %this.addr, align 8
  %call = call %"struct.std::_Rb_tree_node"* @_ZNKSt8_Rb_treeINSt7__cxx1112basic_stringIcSt11char_traitsIcESaIcEEESt4pairIKS5_dESt10_Select1stIS8_ESt4lessIS5_ESaIS8_EE8_M_beginEv(%"class.std::_Rb_tree"* %this1) #3
  %call2 = call %"struct.std::_Rb_tree_node"* @_ZNKSt8_Rb_treeINSt7__cxx1112basic_stringIcSt11char_traitsIcESaIcEEESt4pairIKS5_dESt10_Select1stIS8_ESt4lessIS5_ESaIS8_EE6_M_endEv(%"class.std::_Rb_tree"* %this1) #3
  %0 = load %"class.std::__cxx11::basic_string"*, %"class.std::__cxx11::basic_string"** %__k.addr, align 8
  %call3 = call %"struct.std::_Rb_tree_node_base"* @_ZNKSt8_Rb_treeINSt7__cxx1112basic_stringIcSt11char_traitsIcESaIcEEESt4pairIKS5_dESt10_Select1stIS8_ESt4lessIS5_ESaIS8_EE14_M_lower_boundEPKSt13_Rb_tree_nodeIS8_ESI_RS7_(%"class.std::_Rb_tree"* %this1, %"struct.std::_Rb_tree_node"* %call, %"struct.std::_Rb_tree_node"* %call2, %"class.std::__cxx11::basic_string"* dereferenceable(32) %0)
  %coerce.dive = getelementptr inbounds %"struct.std::_Rb_tree_const_iterator", %"struct.std::_Rb_tree_const_iterator"* %__j, i32 0, i32 0
  store %"struct.std::_Rb_tree_node_base"* %call3, %"struct.std::_Rb_tree_node_base"** %coerce.dive, align 8
  %call4 = call %"struct.std::_Rb_tree_node_base"* @_ZNKSt8_Rb_treeINSt7__cxx1112basic_stringIcSt11char_traitsIcESaIcEEESt4pairIKS5_dESt10_Select1stIS8_ESt4lessIS5_ESaIS8_EE3endEv(%"class.std::_Rb_tree"* %this1) #3
  %coerce.dive5 = getelementptr inbounds %"struct.std::_Rb_tree_const_iterator", %"struct.std::_Rb_tree_const_iterator"* %ref.tmp, i32 0, i32 0
  store %"struct.std::_Rb_tree_node_base"* %call4, %"struct.std::_Rb_tree_node_base"** %coerce.dive5, align 8
  %call6 = call zeroext i1 @_ZNKSt23_Rb_tree_const_iteratorISt4pairIKNSt7__cxx1112basic_stringIcSt11char_traitsIcESaIcEEEdEEeqERKS9_(%"struct.std::_Rb_tree_const_iterator"* %__j, %"struct.std::_Rb_tree_const_iterator"* dereferenceable(8) %ref.tmp) #3
  br i1 %call6, label %cond.true, label %lor.lhs.false

lor.lhs.false:                                    ; preds = %entry
  %_M_impl = getelementptr inbounds %"class.std::_Rb_tree", %"class.std::_Rb_tree"* %this1, i32 0, i32 0
  %_M_key_compare = getelementptr inbounds %"struct.std::_Rb_tree<std::__cxx11::basic_string<char>, std::pair<const std::__cxx11::basic_string<char>, double>, std::_Select1st<std::pair<const std::__cxx11::basic_string<char>, double> >, std::less<std::__cxx11::basic_string<char> >, std::allocator<std::pair<const std::__cxx11::basic_string<char>, double> > >::_Rb_tree_impl", %"struct.std::_Rb_tree<std::__cxx11::basic_string<char>, std::pair<const std::__cxx11::basic_string<char>, double>, std::_Select1st<std::pair<const std::__cxx11::basic_string<char>, double> >, std::less<std::__cxx11::basic_string<char> >, std::allocator<std::pair<const std::__cxx11::basic_string<char>, double> > >::_Rb_tree_impl"* %_M_impl, i32 0, i32 0
  %1 = load %"class.std::__cxx11::basic_string"*, %"class.std::__cxx11::basic_string"** %__k.addr, align 8
  %_M_node = getelementptr inbounds %"struct.std::_Rb_tree_const_iterator", %"struct.std::_Rb_tree_const_iterator"* %__j, i32 0, i32 0
  %2 = load %"struct.std::_Rb_tree_node_base"*, %"struct.std::_Rb_tree_node_base"** %_M_node, align 8
  %call7 = call dereferenceable(32) %"class.std::__cxx11::basic_string"* @_ZNSt8_Rb_treeINSt7__cxx1112basic_stringIcSt11char_traitsIcESaIcEEESt4pairIKS5_dESt10_Select1stIS8_ESt4lessIS5_ESaIS8_EE6_S_keyEPKSt18_Rb_tree_node_base(%"struct.std::_Rb_tree_node_base"* %2)
  %call8 = call zeroext i1 @_ZNKSt4lessINSt7__cxx1112basic_stringIcSt11char_traitsIcESaIcEEEEclERKS5_S8_(%"struct.std::less"* %_M_key_compare, %"class.std::__cxx11::basic_string"* dereferenceable(32) %1, %"class.std::__cxx11::basic_string"* dereferenceable(32) %call7)
  br i1 %call8, label %cond.true, label %cond.false

cond.true:                                        ; preds = %lor.lhs.false, %entry
  %call9 = call %"struct.std::_Rb_tree_node_base"* @_ZNKSt8_Rb_treeINSt7__cxx1112basic_stringIcSt11char_traitsIcESaIcEEESt4pairIKS5_dESt10_Select1stIS8_ESt4lessIS5_ESaIS8_EE3endEv(%"class.std::_Rb_tree"* %this1) #3
  %coerce.dive10 = getelementptr inbounds %"struct.std::_Rb_tree_const_iterator", %"struct.std::_Rb_tree_const_iterator"* %retval, i32 0, i32 0
  store %"struct.std::_Rb_tree_node_base"* %call9, %"struct.std::_Rb_tree_node_base"** %coerce.dive10, align 8
  br label %cond.end

cond.false:                                       ; preds = %lor.lhs.false
  %3 = bitcast %"struct.std::_Rb_tree_const_iterator"* %retval to i8*
  %4 = bitcast %"struct.std::_Rb_tree_const_iterator"* %__j to i8*
  call void @llvm.memcpy.p0i8.p0i8.i64(i8* align 8 %3, i8* align 8 %4, i64 8, i1 false)
  br label %cond.end

cond.end:                                         ; preds = %cond.false, %cond.true
  %coerce.dive11 = getelementptr inbounds %"struct.std::_Rb_tree_const_iterator", %"struct.std::_Rb_tree_const_iterator"* %retval, i32 0, i32 0
  %5 = load %"struct.std::_Rb_tree_node_base"*, %"struct.std::_Rb_tree_node_base"** %coerce.dive11, align 8
  ret %"struct.std::_Rb_tree_node_base"* %5
}

; Function Attrs: noinline nounwind optnone uwtable
define linkonce_odr dso_local zeroext i1 @_ZNKSt23_Rb_tree_const_iteratorISt4pairIKNSt7__cxx1112basic_stringIcSt11char_traitsIcESaIcEEEdEEeqERKS9_(%"struct.std::_Rb_tree_const_iterator"* %this, %"struct.std::_Rb_tree_const_iterator"* dereferenceable(8) %__x) #5 comdat align 2 {
entry:
  %this.addr = alloca %"struct.std::_Rb_tree_const_iterator"*, align 8
  %__x.addr = alloca %"struct.std::_Rb_tree_const_iterator"*, align 8
  store %"struct.std::_Rb_tree_const_iterator"* %this, %"struct.std::_Rb_tree_const_iterator"** %this.addr, align 8
  store %"struct.std::_Rb_tree_const_iterator"* %__x, %"struct.std::_Rb_tree_const_iterator"** %__x.addr, align 8
  %this1 = load %"struct.std::_Rb_tree_const_iterator"*, %"struct.std::_Rb_tree_const_iterator"** %this.addr, align 8
  %_M_node = getelementptr inbounds %"struct.std::_Rb_tree_const_iterator", %"struct.std::_Rb_tree_const_iterator"* %this1, i32 0, i32 0
  %0 = load %"struct.std::_Rb_tree_node_base"*, %"struct.std::_Rb_tree_node_base"** %_M_node, align 8
  %1 = load %"struct.std::_Rb_tree_const_iterator"*, %"struct.std::_Rb_tree_const_iterator"** %__x.addr, align 8
  %_M_node2 = getelementptr inbounds %"struct.std::_Rb_tree_const_iterator", %"struct.std::_Rb_tree_const_iterator"* %1, i32 0, i32 0
  %2 = load %"struct.std::_Rb_tree_node_base"*, %"struct.std::_Rb_tree_node_base"** %_M_node2, align 8
  %cmp = icmp eq %"struct.std::_Rb_tree_node_base"* %0, %2
  ret i1 %cmp
}

; Function Attrs: noinline nounwind optnone uwtable
define linkonce_odr dso_local %"struct.std::_Rb_tree_node_base"* @_ZNKSt8_Rb_treeINSt7__cxx1112basic_stringIcSt11char_traitsIcESaIcEEESt4pairIKS5_dESt10_Select1stIS8_ESt4lessIS5_ESaIS8_EE3endEv(%"class.std::_Rb_tree"* %this) #5 comdat align 2 {
entry:
  %retval = alloca %"struct.std::_Rb_tree_const_iterator", align 8
  %this.addr = alloca %"class.std::_Rb_tree"*, align 8
  store %"class.std::_Rb_tree"* %this, %"class.std::_Rb_tree"** %this.addr, align 8
  %this1 = load %"class.std::_Rb_tree"*, %"class.std::_Rb_tree"** %this.addr, align 8
  %_M_impl = getelementptr inbounds %"class.std::_Rb_tree", %"class.std::_Rb_tree"* %this1, i32 0, i32 0
  %_M_header = getelementptr inbounds %"struct.std::_Rb_tree<std::__cxx11::basic_string<char>, std::pair<const std::__cxx11::basic_string<char>, double>, std::_Select1st<std::pair<const std::__cxx11::basic_string<char>, double> >, std::less<std::__cxx11::basic_string<char> >, std::allocator<std::pair<const std::__cxx11::basic_string<char>, double> > >::_Rb_tree_impl", %"struct.std::_Rb_tree<std::__cxx11::basic_string<char>, std::pair<const std::__cxx11::basic_string<char>, double>, std::_Select1st<std::pair<const std::__cxx11::basic_string<char>, double> >, std::less<std::__cxx11::basic_string<char> >, std::allocator<std::pair<const std::__cxx11::basic_string<char>, double> > >::_Rb_tree_impl"* %_M_impl, i32 0, i32 1
  call void @_ZNSt23_Rb_tree_const_iteratorISt4pairIKNSt7__cxx1112basic_stringIcSt11char_traitsIcESaIcEEEdEEC2EPKSt18_Rb_tree_node_base(%"struct.std::_Rb_tree_const_iterator"* %retval, %"struct.std::_Rb_tree_node_base"* %_M_header) #3
  %coerce.dive = getelementptr inbounds %"struct.std::_Rb_tree_const_iterator", %"struct.std::_Rb_tree_const_iterator"* %retval, i32 0, i32 0
  %0 = load %"struct.std::_Rb_tree_node_base"*, %"struct.std::_Rb_tree_node_base"** %coerce.dive, align 8
  ret %"struct.std::_Rb_tree_node_base"* %0
}

; Function Attrs: noinline optnone uwtable
define linkonce_odr dso_local %"struct.std::_Rb_tree_node_base"* @_ZNKSt8_Rb_treeINSt7__cxx1112basic_stringIcSt11char_traitsIcESaIcEEESt4pairIKS5_dESt10_Select1stIS8_ESt4lessIS5_ESaIS8_EE14_M_lower_boundEPKSt13_Rb_tree_nodeIS8_ESI_RS7_(%"class.std::_Rb_tree"* %this, %"struct.std::_Rb_tree_node"* %__x, %"struct.std::_Rb_tree_node"* %__y, %"class.std::__cxx11::basic_string"* dereferenceable(32) %__k) #6 comdat align 2 {
entry:
  %retval = alloca %"struct.std::_Rb_tree_const_iterator", align 8
  %this.addr = alloca %"class.std::_Rb_tree"*, align 8
  %__x.addr = alloca %"struct.std::_Rb_tree_node"*, align 8
  %__y.addr = alloca %"struct.std::_Rb_tree_node"*, align 8
  %__k.addr = alloca %"class.std::__cxx11::basic_string"*, align 8
  store %"class.std::_Rb_tree"* %this, %"class.std::_Rb_tree"** %this.addr, align 8
  store %"struct.std::_Rb_tree_node"* %__x, %"struct.std::_Rb_tree_node"** %__x.addr, align 8
  store %"struct.std::_Rb_tree_node"* %__y, %"struct.std::_Rb_tree_node"** %__y.addr, align 8
  store %"class.std::__cxx11::basic_string"* %__k, %"class.std::__cxx11::basic_string"** %__k.addr, align 8
  %this1 = load %"class.std::_Rb_tree"*, %"class.std::_Rb_tree"** %this.addr, align 8
  br label %while.cond

while.cond:                                       ; preds = %if.end, %entry
  %0 = load %"struct.std::_Rb_tree_node"*, %"struct.std::_Rb_tree_node"** %__x.addr, align 8
  %cmp = icmp ne %"struct.std::_Rb_tree_node"* %0, null
  br i1 %cmp, label %while.body, label %while.end

while.body:                                       ; preds = %while.cond
  %_M_impl = getelementptr inbounds %"class.std::_Rb_tree", %"class.std::_Rb_tree"* %this1, i32 0, i32 0
  %_M_key_compare = getelementptr inbounds %"struct.std::_Rb_tree<std::__cxx11::basic_string<char>, std::pair<const std::__cxx11::basic_string<char>, double>, std::_Select1st<std::pair<const std::__cxx11::basic_string<char>, double> >, std::less<std::__cxx11::basic_string<char> >, std::allocator<std::pair<const std::__cxx11::basic_string<char>, double> > >::_Rb_tree_impl", %"struct.std::_Rb_tree<std::__cxx11::basic_string<char>, std::pair<const std::__cxx11::basic_string<char>, double>, std::_Select1st<std::pair<const std::__cxx11::basic_string<char>, double> >, std::less<std::__cxx11::basic_string<char> >, std::allocator<std::pair<const std::__cxx11::basic_string<char>, double> > >::_Rb_tree_impl"* %_M_impl, i32 0, i32 0
  %1 = load %"struct.std::_Rb_tree_node"*, %"struct.std::_Rb_tree_node"** %__x.addr, align 8
  %call = call dereferenceable(32) %"class.std::__cxx11::basic_string"* @_ZNSt8_Rb_treeINSt7__cxx1112basic_stringIcSt11char_traitsIcESaIcEEESt4pairIKS5_dESt10_Select1stIS8_ESt4lessIS5_ESaIS8_EE6_S_keyEPKSt13_Rb_tree_nodeIS8_E(%"struct.std::_Rb_tree_node"* %1)
  %2 = load %"class.std::__cxx11::basic_string"*, %"class.std::__cxx11::basic_string"** %__k.addr, align 8
  %call2 = call zeroext i1 @_ZNKSt4lessINSt7__cxx1112basic_stringIcSt11char_traitsIcESaIcEEEEclERKS5_S8_(%"struct.std::less"* %_M_key_compare, %"class.std::__cxx11::basic_string"* dereferenceable(32) %call, %"class.std::__cxx11::basic_string"* dereferenceable(32) %2)
  br i1 %call2, label %if.else, label %if.then

if.then:                                          ; preds = %while.body
  %3 = load %"struct.std::_Rb_tree_node"*, %"struct.std::_Rb_tree_node"** %__x.addr, align 8
  store %"struct.std::_Rb_tree_node"* %3, %"struct.std::_Rb_tree_node"** %__y.addr, align 8
  %4 = load %"struct.std::_Rb_tree_node"*, %"struct.std::_Rb_tree_node"** %__x.addr, align 8
  %5 = bitcast %"struct.std::_Rb_tree_node"* %4 to %"struct.std::_Rb_tree_node_base"*
  %call3 = call %"struct.std::_Rb_tree_node"* @_ZNSt8_Rb_treeINSt7__cxx1112basic_stringIcSt11char_traitsIcESaIcEEESt4pairIKS5_dESt10_Select1stIS8_ESt4lessIS5_ESaIS8_EE7_S_leftEPKSt18_Rb_tree_node_base(%"struct.std::_Rb_tree_node_base"* %5) #3
  store %"struct.std::_Rb_tree_node"* %call3, %"struct.std::_Rb_tree_node"** %__x.addr, align 8
  br label %if.end

if.else:                                          ; preds = %while.body
  %6 = load %"struct.std::_Rb_tree_node"*, %"struct.std::_Rb_tree_node"** %__x.addr, align 8
  %7 = bitcast %"struct.std::_Rb_tree_node"* %6 to %"struct.std::_Rb_tree_node_base"*
  %call4 = call %"struct.std::_Rb_tree_node"* @_ZNSt8_Rb_treeINSt7__cxx1112basic_stringIcSt11char_traitsIcESaIcEEESt4pairIKS5_dESt10_Select1stIS8_ESt4lessIS5_ESaIS8_EE8_S_rightEPKSt18_Rb_tree_node_base(%"struct.std::_Rb_tree_node_base"* %7) #3
  store %"struct.std::_Rb_tree_node"* %call4, %"struct.std::_Rb_tree_node"** %__x.addr, align 8
  br label %if.end

if.end:                                           ; preds = %if.else, %if.then
  br label %while.cond

while.end:                                        ; preds = %while.cond
  %8 = load %"struct.std::_Rb_tree_node"*, %"struct.std::_Rb_tree_node"** %__y.addr, align 8
  %9 = bitcast %"struct.std::_Rb_tree_node"* %8 to %"struct.std::_Rb_tree_node_base"*
  call void @_ZNSt23_Rb_tree_const_iteratorISt4pairIKNSt7__cxx1112basic_stringIcSt11char_traitsIcESaIcEEEdEEC2EPKSt18_Rb_tree_node_base(%"struct.std::_Rb_tree_const_iterator"* %retval, %"struct.std::_Rb_tree_node_base"* %9) #3
  %coerce.dive = getelementptr inbounds %"struct.std::_Rb_tree_const_iterator", %"struct.std::_Rb_tree_const_iterator"* %retval, i32 0, i32 0
  %10 = load %"struct.std::_Rb_tree_node_base"*, %"struct.std::_Rb_tree_node_base"** %coerce.dive, align 8
  ret %"struct.std::_Rb_tree_node_base"* %10
}

; Function Attrs: noinline nounwind optnone uwtable
define linkonce_odr dso_local %"struct.std::_Rb_tree_node"* @_ZNKSt8_Rb_treeINSt7__cxx1112basic_stringIcSt11char_traitsIcESaIcEEESt4pairIKS5_dESt10_Select1stIS8_ESt4lessIS5_ESaIS8_EE8_M_beginEv(%"class.std::_Rb_tree"* %this) #5 comdat align 2 {
entry:
  %this.addr = alloca %"class.std::_Rb_tree"*, align 8
  store %"class.std::_Rb_tree"* %this, %"class.std::_Rb_tree"** %this.addr, align 8
  %this1 = load %"class.std::_Rb_tree"*, %"class.std::_Rb_tree"** %this.addr, align 8
  %_M_impl = getelementptr inbounds %"class.std::_Rb_tree", %"class.std::_Rb_tree"* %this1, i32 0, i32 0
  %_M_header = getelementptr inbounds %"struct.std::_Rb_tree<std::__cxx11::basic_string<char>, std::pair<const std::__cxx11::basic_string<char>, double>, std::_Select1st<std::pair<const std::__cxx11::basic_string<char>, double> >, std::less<std::__cxx11::basic_string<char> >, std::allocator<std::pair<const std::__cxx11::basic_string<char>, double> > >::_Rb_tree_impl", %"struct.std::_Rb_tree<std::__cxx11::basic_string<char>, std::pair<const std::__cxx11::basic_string<char>, double>, std::_Select1st<std::pair<const std::__cxx11::basic_string<char>, double> >, std::less<std::__cxx11::basic_string<char> >, std::allocator<std::pair<const std::__cxx11::basic_string<char>, double> > >::_Rb_tree_impl"* %_M_impl, i32 0, i32 1
  %_M_parent = getelementptr inbounds %"struct.std::_Rb_tree_node_base", %"struct.std::_Rb_tree_node_base"* %_M_header, i32 0, i32 1
  %0 = load %"struct.std::_Rb_tree_node_base"*, %"struct.std::_Rb_tree_node_base"** %_M_parent, align 8
  %1 = bitcast %"struct.std::_Rb_tree_node_base"* %0 to %"struct.std::_Rb_tree_node"*
  ret %"struct.std::_Rb_tree_node"* %1
}

; Function Attrs: noinline nounwind optnone uwtable
define linkonce_odr dso_local %"struct.std::_Rb_tree_node"* @_ZNKSt8_Rb_treeINSt7__cxx1112basic_stringIcSt11char_traitsIcESaIcEEESt4pairIKS5_dESt10_Select1stIS8_ESt4lessIS5_ESaIS8_EE6_M_endEv(%"class.std::_Rb_tree"* %this) #5 comdat align 2 {
entry:
  %this.addr = alloca %"class.std::_Rb_tree"*, align 8
  store %"class.std::_Rb_tree"* %this, %"class.std::_Rb_tree"** %this.addr, align 8
  %this1 = load %"class.std::_Rb_tree"*, %"class.std::_Rb_tree"** %this.addr, align 8
  %_M_impl = getelementptr inbounds %"class.std::_Rb_tree", %"class.std::_Rb_tree"* %this1, i32 0, i32 0
  %_M_header = getelementptr inbounds %"struct.std::_Rb_tree<std::__cxx11::basic_string<char>, std::pair<const std::__cxx11::basic_string<char>, double>, std::_Select1st<std::pair<const std::__cxx11::basic_string<char>, double> >, std::less<std::__cxx11::basic_string<char> >, std::allocator<std::pair<const std::__cxx11::basic_string<char>, double> > >::_Rb_tree_impl", %"struct.std::_Rb_tree<std::__cxx11::basic_string<char>, std::pair<const std::__cxx11::basic_string<char>, double>, std::_Select1st<std::pair<const std::__cxx11::basic_string<char>, double> >, std::less<std::__cxx11::basic_string<char> >, std::allocator<std::pair<const std::__cxx11::basic_string<char>, double> > >::_Rb_tree_impl"* %_M_impl, i32 0, i32 1
  %0 = bitcast %"struct.std::_Rb_tree_node_base"* %_M_header to %"struct.std::_Rb_tree_node"*
  ret %"struct.std::_Rb_tree_node"* %0
}

; Function Attrs: noinline optnone uwtable
define linkonce_odr dso_local zeroext i1 @_ZNKSt4lessINSt7__cxx1112basic_stringIcSt11char_traitsIcESaIcEEEEclERKS5_S8_(%"struct.std::less"* %this, %"class.std::__cxx11::basic_string"* dereferenceable(32) %__x, %"class.std::__cxx11::basic_string"* dereferenceable(32) %__y) #6 comdat align 2 {
entry:
  %this.addr = alloca %"struct.std::less"*, align 8
  %__x.addr = alloca %"class.std::__cxx11::basic_string"*, align 8
  %__y.addr = alloca %"class.std::__cxx11::basic_string"*, align 8
  store %"struct.std::less"* %this, %"struct.std::less"** %this.addr, align 8
  store %"class.std::__cxx11::basic_string"* %__x, %"class.std::__cxx11::basic_string"** %__x.addr, align 8
  store %"class.std::__cxx11::basic_string"* %__y, %"class.std::__cxx11::basic_string"** %__y.addr, align 8
  %this1 = load %"struct.std::less"*, %"struct.std::less"** %this.addr, align 8
  %0 = load %"class.std::__cxx11::basic_string"*, %"class.std::__cxx11::basic_string"** %__x.addr, align 8
  %1 = load %"class.std::__cxx11::basic_string"*, %"class.std::__cxx11::basic_string"** %__y.addr, align 8
  %call = call zeroext i1 @_ZStltIcSt11char_traitsIcESaIcEEbRKNSt7__cxx1112basic_stringIT_T0_T1_EESA_(%"class.std::__cxx11::basic_string"* dereferenceable(32) %0, %"class.std::__cxx11::basic_string"* dereferenceable(32) %1)
  ret i1 %call
}

; Function Attrs: noinline optnone uwtable
define linkonce_odr dso_local dereferenceable(32) %"class.std::__cxx11::basic_string"* @_ZNSt8_Rb_treeINSt7__cxx1112basic_stringIcSt11char_traitsIcESaIcEEESt4pairIKS5_dESt10_Select1stIS8_ESt4lessIS5_ESaIS8_EE6_S_keyEPKSt18_Rb_tree_node_base(%"struct.std::_Rb_tree_node_base"* %__x) #6 comdat align 2 {
entry:
  %__x.addr = alloca %"struct.std::_Rb_tree_node_base"*, align 8
  %ref.tmp = alloca %"struct.std::_Select1st", align 1
  store %"struct.std::_Rb_tree_node_base"* %__x, %"struct.std::_Rb_tree_node_base"** %__x.addr, align 8
  %0 = load %"struct.std::_Rb_tree_node_base"*, %"struct.std::_Rb_tree_node_base"** %__x.addr, align 8
  %call = call dereferenceable(40) %"struct.std::pair"* @_ZNSt8_Rb_treeINSt7__cxx1112basic_stringIcSt11char_traitsIcESaIcEEESt4pairIKS5_dESt10_Select1stIS8_ESt4lessIS5_ESaIS8_EE8_S_valueEPKSt18_Rb_tree_node_base(%"struct.std::_Rb_tree_node_base"* %0)
  %call1 = call dereferenceable(32) %"class.std::__cxx11::basic_string"* @_ZNKSt10_Select1stISt4pairIKNSt7__cxx1112basic_stringIcSt11char_traitsIcESaIcEEEdEEclERKS8_(%"struct.std::_Select1st"* %ref.tmp, %"struct.std::pair"* dereferenceable(40) %call)
  ret %"class.std::__cxx11::basic_string"* %call1
}

; Function Attrs: argmemonly nounwind
declare void @llvm.memcpy.p0i8.p0i8.i64(i8* nocapture writeonly, i8* nocapture readonly, i64, i1) #11

; Function Attrs: noinline optnone uwtable
define linkonce_odr dso_local dereferenceable(32) %"class.std::__cxx11::basic_string"* @_ZNSt8_Rb_treeINSt7__cxx1112basic_stringIcSt11char_traitsIcESaIcEEESt4pairIKS5_dESt10_Select1stIS8_ESt4lessIS5_ESaIS8_EE6_S_keyEPKSt13_Rb_tree_nodeIS8_E(%"struct.std::_Rb_tree_node"* %__x) #6 comdat align 2 {
entry:
  %__x.addr = alloca %"struct.std::_Rb_tree_node"*, align 8
  %ref.tmp = alloca %"struct.std::_Select1st", align 1
  store %"struct.std::_Rb_tree_node"* %__x, %"struct.std::_Rb_tree_node"** %__x.addr, align 8
  %0 = load %"struct.std::_Rb_tree_node"*, %"struct.std::_Rb_tree_node"** %__x.addr, align 8
  %call = call dereferenceable(40) %"struct.std::pair"* @_ZNSt8_Rb_treeINSt7__cxx1112basic_stringIcSt11char_traitsIcESaIcEEESt4pairIKS5_dESt10_Select1stIS8_ESt4lessIS5_ESaIS8_EE8_S_valueEPKSt13_Rb_tree_nodeIS8_E(%"struct.std::_Rb_tree_node"* %0)
  %call1 = call dereferenceable(32) %"class.std::__cxx11::basic_string"* @_ZNKSt10_Select1stISt4pairIKNSt7__cxx1112basic_stringIcSt11char_traitsIcESaIcEEEdEEclERKS8_(%"struct.std::_Select1st"* %ref.tmp, %"struct.std::pair"* dereferenceable(40) %call)
  ret %"class.std::__cxx11::basic_string"* %call1
}

; Function Attrs: noinline nounwind optnone uwtable
define linkonce_odr dso_local %"struct.std::_Rb_tree_node"* @_ZNSt8_Rb_treeINSt7__cxx1112basic_stringIcSt11char_traitsIcESaIcEEESt4pairIKS5_dESt10_Select1stIS8_ESt4lessIS5_ESaIS8_EE7_S_leftEPKSt18_Rb_tree_node_base(%"struct.std::_Rb_tree_node_base"* %__x) #5 comdat align 2 {
entry:
  %__x.addr = alloca %"struct.std::_Rb_tree_node_base"*, align 8
  store %"struct.std::_Rb_tree_node_base"* %__x, %"struct.std::_Rb_tree_node_base"** %__x.addr, align 8
  %0 = load %"struct.std::_Rb_tree_node_base"*, %"struct.std::_Rb_tree_node_base"** %__x.addr, align 8
  %_M_left = getelementptr inbounds %"struct.std::_Rb_tree_node_base", %"struct.std::_Rb_tree_node_base"* %0, i32 0, i32 2
  %1 = load %"struct.std::_Rb_tree_node_base"*, %"struct.std::_Rb_tree_node_base"** %_M_left, align 8
  %2 = bitcast %"struct.std::_Rb_tree_node_base"* %1 to %"struct.std::_Rb_tree_node"*
  ret %"struct.std::_Rb_tree_node"* %2
}

; Function Attrs: noinline nounwind optnone uwtable
define linkonce_odr dso_local %"struct.std::_Rb_tree_node"* @_ZNSt8_Rb_treeINSt7__cxx1112basic_stringIcSt11char_traitsIcESaIcEEESt4pairIKS5_dESt10_Select1stIS8_ESt4lessIS5_ESaIS8_EE8_S_rightEPKSt18_Rb_tree_node_base(%"struct.std::_Rb_tree_node_base"* %__x) #5 comdat align 2 {
entry:
  %__x.addr = alloca %"struct.std::_Rb_tree_node_base"*, align 8
  store %"struct.std::_Rb_tree_node_base"* %__x, %"struct.std::_Rb_tree_node_base"** %__x.addr, align 8
  %0 = load %"struct.std::_Rb_tree_node_base"*, %"struct.std::_Rb_tree_node_base"** %__x.addr, align 8
  %_M_right = getelementptr inbounds %"struct.std::_Rb_tree_node_base", %"struct.std::_Rb_tree_node_base"* %0, i32 0, i32 3
  %1 = load %"struct.std::_Rb_tree_node_base"*, %"struct.std::_Rb_tree_node_base"** %_M_right, align 8
  %2 = bitcast %"struct.std::_Rb_tree_node_base"* %1 to %"struct.std::_Rb_tree_node"*
  ret %"struct.std::_Rb_tree_node"* %2
}

; Function Attrs: noinline nounwind optnone uwtable
define linkonce_odr dso_local void @_ZNSt23_Rb_tree_const_iteratorISt4pairIKNSt7__cxx1112basic_stringIcSt11char_traitsIcESaIcEEEdEEC2EPKSt18_Rb_tree_node_base(%"struct.std::_Rb_tree_const_iterator"* %this, %"struct.std::_Rb_tree_node_base"* %__x) unnamed_addr #5 comdat align 2 {
entry:
  %this.addr = alloca %"struct.std::_Rb_tree_const_iterator"*, align 8
  %__x.addr = alloca %"struct.std::_Rb_tree_node_base"*, align 8
  store %"struct.std::_Rb_tree_const_iterator"* %this, %"struct.std::_Rb_tree_const_iterator"** %this.addr, align 8
  store %"struct.std::_Rb_tree_node_base"* %__x, %"struct.std::_Rb_tree_node_base"** %__x.addr, align 8
  %this1 = load %"struct.std::_Rb_tree_const_iterator"*, %"struct.std::_Rb_tree_const_iterator"** %this.addr, align 8
  %_M_node = getelementptr inbounds %"struct.std::_Rb_tree_const_iterator", %"struct.std::_Rb_tree_const_iterator"* %this1, i32 0, i32 0
  %0 = load %"struct.std::_Rb_tree_node_base"*, %"struct.std::_Rb_tree_node_base"** %__x.addr, align 8
  store %"struct.std::_Rb_tree_node_base"* %0, %"struct.std::_Rb_tree_node_base"** %_M_node, align 8
  ret void
}

; Function Attrs: noinline nounwind optnone uwtable
define linkonce_odr dso_local dereferenceable(32) %"class.std::__cxx11::basic_string"* @_ZNKSt10_Select1stISt4pairIKNSt7__cxx1112basic_stringIcSt11char_traitsIcESaIcEEEdEEclERKS8_(%"struct.std::_Select1st"* %this, %"struct.std::pair"* dereferenceable(40) %__x) #5 comdat align 2 {
entry:
  %this.addr = alloca %"struct.std::_Select1st"*, align 8
  %__x.addr = alloca %"struct.std::pair"*, align 8
  store %"struct.std::_Select1st"* %this, %"struct.std::_Select1st"** %this.addr, align 8
  store %"struct.std::pair"* %__x, %"struct.std::pair"** %__x.addr, align 8
  %this1 = load %"struct.std::_Select1st"*, %"struct.std::_Select1st"** %this.addr, align 8
  %0 = load %"struct.std::pair"*, %"struct.std::pair"** %__x.addr, align 8
  %first = getelementptr inbounds %"struct.std::pair", %"struct.std::pair"* %0, i32 0, i32 0
  ret %"class.std::__cxx11::basic_string"* %first
}

; Function Attrs: noinline optnone uwtable
define linkonce_odr dso_local dereferenceable(40) %"struct.std::pair"* @_ZNSt8_Rb_treeINSt7__cxx1112basic_stringIcSt11char_traitsIcESaIcEEESt4pairIKS5_dESt10_Select1stIS8_ESt4lessIS5_ESaIS8_EE8_S_valueEPKSt13_Rb_tree_nodeIS8_E(%"struct.std::_Rb_tree_node"* %__x) #6 comdat align 2 {
entry:
  %__x.addr = alloca %"struct.std::_Rb_tree_node"*, align 8
  store %"struct.std::_Rb_tree_node"* %__x, %"struct.std::_Rb_tree_node"** %__x.addr, align 8
  %0 = load %"struct.std::_Rb_tree_node"*, %"struct.std::_Rb_tree_node"** %__x.addr, align 8
  %call = call %"struct.std::pair"* @_ZNKSt13_Rb_tree_nodeISt4pairIKNSt7__cxx1112basic_stringIcSt11char_traitsIcESaIcEEEdEE9_M_valptrEv(%"struct.std::_Rb_tree_node"* %0)
  ret %"struct.std::pair"* %call
}

; Function Attrs: noinline nounwind optnone uwtable
define linkonce_odr dso_local %"struct.std::pair"* @_ZNKSt13_Rb_tree_nodeISt4pairIKNSt7__cxx1112basic_stringIcSt11char_traitsIcESaIcEEEdEE9_M_valptrEv(%"struct.std::_Rb_tree_node"* %this) #5 comdat align 2 {
entry:
  %this.addr = alloca %"struct.std::_Rb_tree_node"*, align 8
  store %"struct.std::_Rb_tree_node"* %this, %"struct.std::_Rb_tree_node"** %this.addr, align 8
  %this1 = load %"struct.std::_Rb_tree_node"*, %"struct.std::_Rb_tree_node"** %this.addr, align 8
  %_M_storage = getelementptr inbounds %"struct.std::_Rb_tree_node", %"struct.std::_Rb_tree_node"* %this1, i32 0, i32 1
  %call = call %"struct.std::pair"* @_ZNK9__gnu_cxx16__aligned_membufISt4pairIKNSt7__cxx1112basic_stringIcSt11char_traitsIcESaIcEEEdEE6_M_ptrEv(%"struct.__gnu_cxx::__aligned_membuf"* %_M_storage) #3
  ret %"struct.std::pair"* %call
}

; Function Attrs: noinline nounwind optnone uwtable
define linkonce_odr dso_local %"struct.std::pair"* @_ZNK9__gnu_cxx16__aligned_membufISt4pairIKNSt7__cxx1112basic_stringIcSt11char_traitsIcESaIcEEEdEE6_M_ptrEv(%"struct.__gnu_cxx::__aligned_membuf"* %this) #5 comdat align 2 {
entry:
  %this.addr = alloca %"struct.__gnu_cxx::__aligned_membuf"*, align 8
  store %"struct.__gnu_cxx::__aligned_membuf"* %this, %"struct.__gnu_cxx::__aligned_membuf"** %this.addr, align 8
  %this1 = load %"struct.__gnu_cxx::__aligned_membuf"*, %"struct.__gnu_cxx::__aligned_membuf"** %this.addr, align 8
  %call = call i8* @_ZNK9__gnu_cxx16__aligned_membufISt4pairIKNSt7__cxx1112basic_stringIcSt11char_traitsIcESaIcEEEdEE7_M_addrEv(%"struct.__gnu_cxx::__aligned_membuf"* %this1) #3
  %0 = bitcast i8* %call to %"struct.std::pair"*
  ret %"struct.std::pair"* %0
}

; Function Attrs: noinline nounwind optnone uwtable
define linkonce_odr dso_local i8* @_ZNK9__gnu_cxx16__aligned_membufISt4pairIKNSt7__cxx1112basic_stringIcSt11char_traitsIcESaIcEEEdEE7_M_addrEv(%"struct.__gnu_cxx::__aligned_membuf"* %this) #5 comdat align 2 {
entry:
  %this.addr = alloca %"struct.__gnu_cxx::__aligned_membuf"*, align 8
  store %"struct.__gnu_cxx::__aligned_membuf"* %this, %"struct.__gnu_cxx::__aligned_membuf"** %this.addr, align 8
  %this1 = load %"struct.__gnu_cxx::__aligned_membuf"*, %"struct.__gnu_cxx::__aligned_membuf"** %this.addr, align 8
  %_M_storage = getelementptr inbounds %"struct.__gnu_cxx::__aligned_membuf", %"struct.__gnu_cxx::__aligned_membuf"* %this1, i32 0, i32 0
  %0 = bitcast [40 x i8]* %_M_storage to i8*
  ret i8* %0
}

; Function Attrs: noinline optnone uwtable
define linkonce_odr dso_local zeroext i1 @_ZStltIcSt11char_traitsIcESaIcEEbRKNSt7__cxx1112basic_stringIT_T0_T1_EESA_(%"class.std::__cxx11::basic_string"* dereferenceable(32) %__lhs, %"class.std::__cxx11::basic_string"* dereferenceable(32) %__rhs) #6 comdat {
entry:
  %__lhs.addr = alloca %"class.std::__cxx11::basic_string"*, align 8
  %__rhs.addr = alloca %"class.std::__cxx11::basic_string"*, align 8
  store %"class.std::__cxx11::basic_string"* %__lhs, %"class.std::__cxx11::basic_string"** %__lhs.addr, align 8
  store %"class.std::__cxx11::basic_string"* %__rhs, %"class.std::__cxx11::basic_string"** %__rhs.addr, align 8
  %0 = load %"class.std::__cxx11::basic_string"*, %"class.std::__cxx11::basic_string"** %__lhs.addr, align 8
  %1 = load %"class.std::__cxx11::basic_string"*, %"class.std::__cxx11::basic_string"** %__rhs.addr, align 8
  %call = call i32 @_ZNKSt7__cxx1112basic_stringIcSt11char_traitsIcESaIcEE7compareERKS4_(%"class.std::__cxx11::basic_string"* %0, %"class.std::__cxx11::basic_string"* dereferenceable(32) %1)
  %cmp = icmp slt i32 %call, 0
  ret i1 %cmp
}

declare dso_local i32 @_ZNKSt7__cxx1112basic_stringIcSt11char_traitsIcESaIcEE7compareERKS4_(%"class.std::__cxx11::basic_string"*, %"class.std::__cxx11::basic_string"* dereferenceable(32)) #1

; Function Attrs: noinline nounwind optnone uwtable
define linkonce_odr dso_local dereferenceable(40) %"struct.std::pair"* @_ZNSt8_Rb_treeINSt7__cxx1112basic_stringIcSt11char_traitsIcESaIcEEESt4pairIKS5_dESt10_Select1stIS8_ESt4lessIS5_ESaIS8_EE8_S_valueEPKSt18_Rb_tree_node_base(%"struct.std::_Rb_tree_node_base"* %__x) #5 comdat align 2 {
entry:
  %__x.addr = alloca %"struct.std::_Rb_tree_node_base"*, align 8
  store %"struct.std::_Rb_tree_node_base"* %__x, %"struct.std::_Rb_tree_node_base"** %__x.addr, align 8
  %0 = load %"struct.std::_Rb_tree_node_base"*, %"struct.std::_Rb_tree_node_base"** %__x.addr, align 8
  %1 = bitcast %"struct.std::_Rb_tree_node_base"* %0 to %"struct.std::_Rb_tree_node"*
  %call = call %"struct.std::pair"* @_ZNKSt13_Rb_tree_nodeISt4pairIKNSt7__cxx1112basic_stringIcSt11char_traitsIcESaIcEEEdEE9_M_valptrEv(%"struct.std::_Rb_tree_node"* %1)
  ret %"struct.std::pair"* %call
}

; Function Attrs: noinline optnone uwtable
define linkonce_odr dso_local %"struct.std::_Rb_tree_node_base"* @_ZNSt3mapINSt7__cxx1112basic_stringIcSt11char_traitsIcESaIcEEEdSt4lessIS5_ESaISt4pairIKS5_dEEE11lower_boundERS9_(%"class.std::map"* %this, %"class.std::__cxx11::basic_string"* dereferenceable(32) %__x) #6 comdat align 2 {
entry:
  %retval = alloca %"struct.std::_Rb_tree_iterator", align 8
  %this.addr = alloca %"class.std::map"*, align 8
  %__x.addr = alloca %"class.std::__cxx11::basic_string"*, align 8
  store %"class.std::map"* %this, %"class.std::map"** %this.addr, align 8
  store %"class.std::__cxx11::basic_string"* %__x, %"class.std::__cxx11::basic_string"** %__x.addr, align 8
  %this1 = load %"class.std::map"*, %"class.std::map"** %this.addr, align 8
  %_M_t = getelementptr inbounds %"class.std::map", %"class.std::map"* %this1, i32 0, i32 0
  %0 = load %"class.std::__cxx11::basic_string"*, %"class.std::__cxx11::basic_string"** %__x.addr, align 8
  %call = call %"struct.std::_Rb_tree_node_base"* @_ZNSt8_Rb_treeINSt7__cxx1112basic_stringIcSt11char_traitsIcESaIcEEESt4pairIKS5_dESt10_Select1stIS8_ESt4lessIS5_ESaIS8_EE11lower_boundERS7_(%"class.std::_Rb_tree"* %_M_t, %"class.std::__cxx11::basic_string"* dereferenceable(32) %0)
  %coerce.dive = getelementptr inbounds %"struct.std::_Rb_tree_iterator", %"struct.std::_Rb_tree_iterator"* %retval, i32 0, i32 0
  store %"struct.std::_Rb_tree_node_base"* %call, %"struct.std::_Rb_tree_node_base"** %coerce.dive, align 8
  %coerce.dive2 = getelementptr inbounds %"struct.std::_Rb_tree_iterator", %"struct.std::_Rb_tree_iterator"* %retval, i32 0, i32 0
  %1 = load %"struct.std::_Rb_tree_node_base"*, %"struct.std::_Rb_tree_node_base"** %coerce.dive2, align 8
  ret %"struct.std::_Rb_tree_node_base"* %1
}

; Function Attrs: noinline nounwind optnone uwtable
define linkonce_odr dso_local zeroext i1 @_ZNKSt17_Rb_tree_iteratorISt4pairIKNSt7__cxx1112basic_stringIcSt11char_traitsIcESaIcEEEdEEeqERKS9_(%"struct.std::_Rb_tree_iterator"* %this, %"struct.std::_Rb_tree_iterator"* dereferenceable(8) %__x) #5 comdat align 2 {
entry:
  %this.addr = alloca %"struct.std::_Rb_tree_iterator"*, align 8
  %__x.addr = alloca %"struct.std::_Rb_tree_iterator"*, align 8
  store %"struct.std::_Rb_tree_iterator"* %this, %"struct.std::_Rb_tree_iterator"** %this.addr, align 8
  store %"struct.std::_Rb_tree_iterator"* %__x, %"struct.std::_Rb_tree_iterator"** %__x.addr, align 8
  %this1 = load %"struct.std::_Rb_tree_iterator"*, %"struct.std::_Rb_tree_iterator"** %this.addr, align 8
  %_M_node = getelementptr inbounds %"struct.std::_Rb_tree_iterator", %"struct.std::_Rb_tree_iterator"* %this1, i32 0, i32 0
  %0 = load %"struct.std::_Rb_tree_node_base"*, %"struct.std::_Rb_tree_node_base"** %_M_node, align 8
  %1 = load %"struct.std::_Rb_tree_iterator"*, %"struct.std::_Rb_tree_iterator"** %__x.addr, align 8
  %_M_node2 = getelementptr inbounds %"struct.std::_Rb_tree_iterator", %"struct.std::_Rb_tree_iterator"* %1, i32 0, i32 0
  %2 = load %"struct.std::_Rb_tree_node_base"*, %"struct.std::_Rb_tree_node_base"** %_M_node2, align 8
  %cmp = icmp eq %"struct.std::_Rb_tree_node_base"* %0, %2
  ret i1 %cmp
}

; Function Attrs: noinline nounwind optnone uwtable
define linkonce_odr dso_local %"struct.std::_Rb_tree_node_base"* @_ZNSt3mapINSt7__cxx1112basic_stringIcSt11char_traitsIcESaIcEEEdSt4lessIS5_ESaISt4pairIKS5_dEEE3endEv(%"class.std::map"* %this) #5 comdat align 2 {
entry:
  %retval = alloca %"struct.std::_Rb_tree_iterator", align 8
  %this.addr = alloca %"class.std::map"*, align 8
  store %"class.std::map"* %this, %"class.std::map"** %this.addr, align 8
  %this1 = load %"class.std::map"*, %"class.std::map"** %this.addr, align 8
  %_M_t = getelementptr inbounds %"class.std::map", %"class.std::map"* %this1, i32 0, i32 0
  %call = call %"struct.std::_Rb_tree_node_base"* @_ZNSt8_Rb_treeINSt7__cxx1112basic_stringIcSt11char_traitsIcESaIcEEESt4pairIKS5_dESt10_Select1stIS8_ESt4lessIS5_ESaIS8_EE3endEv(%"class.std::_Rb_tree"* %_M_t) #3
  %coerce.dive = getelementptr inbounds %"struct.std::_Rb_tree_iterator", %"struct.std::_Rb_tree_iterator"* %retval, i32 0, i32 0
  store %"struct.std::_Rb_tree_node_base"* %call, %"struct.std::_Rb_tree_node_base"** %coerce.dive, align 8
  %coerce.dive2 = getelementptr inbounds %"struct.std::_Rb_tree_iterator", %"struct.std::_Rb_tree_iterator"* %retval, i32 0, i32 0
  %0 = load %"struct.std::_Rb_tree_node_base"*, %"struct.std::_Rb_tree_node_base"** %coerce.dive2, align 8
  ret %"struct.std::_Rb_tree_node_base"* %0
}

; Function Attrs: noinline optnone uwtable
define linkonce_odr dso_local void @_ZNKSt3mapINSt7__cxx1112basic_stringIcSt11char_traitsIcESaIcEEEdSt4lessIS5_ESaISt4pairIKS5_dEEE8key_compEv(%"class.std::map"* %this) #6 comdat align 2 {
entry:
  %retval = alloca %"struct.std::less", align 1
  %this.addr = alloca %"class.std::map"*, align 8
  %undef.agg.tmp = alloca %"struct.std::less", align 1
  store %"class.std::map"* %this, %"class.std::map"** %this.addr, align 8
  %this1 = load %"class.std::map"*, %"class.std::map"** %this.addr, align 8
  %_M_t = getelementptr inbounds %"class.std::map", %"class.std::map"* %this1, i32 0, i32 0
  call void @_ZNKSt8_Rb_treeINSt7__cxx1112basic_stringIcSt11char_traitsIcESaIcEEESt4pairIKS5_dESt10_Select1stIS8_ESt4lessIS5_ESaIS8_EE8key_compEv(%"class.std::_Rb_tree"* %_M_t)
  ret void
}

; Function Attrs: noinline nounwind optnone uwtable
define linkonce_odr dso_local dereferenceable(40) %"struct.std::pair"* @_ZNKSt17_Rb_tree_iteratorISt4pairIKNSt7__cxx1112basic_stringIcSt11char_traitsIcESaIcEEEdEEdeEv(%"struct.std::_Rb_tree_iterator"* %this) #5 comdat align 2 personality i8* bitcast (i32 (...)* @__gxx_personality_v0 to i8*) {
entry:
  %this.addr = alloca %"struct.std::_Rb_tree_iterator"*, align 8
  store %"struct.std::_Rb_tree_iterator"* %this, %"struct.std::_Rb_tree_iterator"** %this.addr, align 8
  %this1 = load %"struct.std::_Rb_tree_iterator"*, %"struct.std::_Rb_tree_iterator"** %this.addr, align 8
  %_M_node = getelementptr inbounds %"struct.std::_Rb_tree_iterator", %"struct.std::_Rb_tree_iterator"* %this1, i32 0, i32 0
  %0 = load %"struct.std::_Rb_tree_node_base"*, %"struct.std::_Rb_tree_node_base"** %_M_node, align 8
  %1 = bitcast %"struct.std::_Rb_tree_node_base"* %0 to %"struct.std::_Rb_tree_node"*
  %call = invoke %"struct.std::pair"* @_ZNSt13_Rb_tree_nodeISt4pairIKNSt7__cxx1112basic_stringIcSt11char_traitsIcESaIcEEEdEE9_M_valptrEv(%"struct.std::_Rb_tree_node"* %1)
          to label %invoke.cont unwind label %terminate.lpad

invoke.cont:                                      ; preds = %entry
  ret %"struct.std::pair"* %call

terminate.lpad:                                   ; preds = %entry
  %2 = landingpad { i8*, i32 }
          catch i8* null
  %3 = extractvalue { i8*, i32 } %2, 0
  call void @__clang_call_terminate(i8* %3) #16
  unreachable
}

; Function Attrs: noinline optnone uwtable
define linkonce_odr dso_local %"struct.std::_Rb_tree_node_base"* @_ZNSt8_Rb_treeINSt7__cxx1112basic_stringIcSt11char_traitsIcESaIcEEESt4pairIKS5_dESt10_Select1stIS8_ESt4lessIS5_ESaIS8_EE22_M_emplace_hint_uniqueIJRKSt21piecewise_construct_tSt5tupleIJRS7_EESJ_IJEEEEESt17_Rb_tree_iteratorIS8_ESt23_Rb_tree_const_iteratorIS8_EDpOT_(%"class.std::_Rb_tree"* %this, %"struct.std::_Rb_tree_node_base"* %__pos.coerce, %"struct.std::piecewise_construct_t"* dereferenceable(1) %__args, %"class.std::tuple"* dereferenceable(8) %__args1, %"class.std::tuple.3"* dereferenceable(1) %__args3) #6 comdat align 2 personality i8* bitcast (i32 (...)* @__gxx_personality_v0 to i8*) {
entry:
  %retval = alloca %"struct.std::_Rb_tree_iterator", align 8
  %__pos = alloca %"struct.std::_Rb_tree_const_iterator", align 8
  %this.addr = alloca %"class.std::_Rb_tree"*, align 8
  %__args.addr = alloca %"struct.std::piecewise_construct_t"*, align 8
  %__args.addr2 = alloca %"class.std::tuple"*, align 8
  %__args.addr4 = alloca %"class.std::tuple.3"*, align 8
  %__z = alloca %"struct.std::_Rb_tree_node"*, align 8
  %__res = alloca %"struct.std::pair.4", align 8
  %agg.tmp = alloca %"struct.std::_Rb_tree_const_iterator", align 8
  %exn.slot = alloca i8*
  %ehselector.slot = alloca i32
  %coerce.dive = getelementptr inbounds %"struct.std::_Rb_tree_const_iterator", %"struct.std::_Rb_tree_const_iterator"* %__pos, i32 0, i32 0
  store %"struct.std::_Rb_tree_node_base"* %__pos.coerce, %"struct.std::_Rb_tree_node_base"** %coerce.dive, align 8
  store %"class.std::_Rb_tree"* %this, %"class.std::_Rb_tree"** %this.addr, align 8
  store %"struct.std::piecewise_construct_t"* %__args, %"struct.std::piecewise_construct_t"** %__args.addr, align 8
  store %"class.std::tuple"* %__args1, %"class.std::tuple"** %__args.addr2, align 8
  store %"class.std::tuple.3"* %__args3, %"class.std::tuple.3"** %__args.addr4, align 8
  %this5 = load %"class.std::_Rb_tree"*, %"class.std::_Rb_tree"** %this.addr, align 8
  %0 = load %"struct.std::piecewise_construct_t"*, %"struct.std::piecewise_construct_t"** %__args.addr, align 8
  %call = call dereferenceable(1) %"struct.std::piecewise_construct_t"* @_ZSt7forwardIRKSt21piecewise_construct_tEOT_RNSt16remove_referenceIS3_E4typeE(%"struct.std::piecewise_construct_t"* dereferenceable(1) %0) #3
  %1 = load %"class.std::tuple"*, %"class.std::tuple"** %__args.addr2, align 8
  %call6 = call dereferenceable(8) %"class.std::tuple"* @_ZSt7forwardISt5tupleIJRKNSt7__cxx1112basic_stringIcSt11char_traitsIcESaIcEEEEEEOT_RNSt16remove_referenceISA_E4typeE(%"class.std::tuple"* dereferenceable(8) %1) #3
  %2 = load %"class.std::tuple.3"*, %"class.std::tuple.3"** %__args.addr4, align 8
  %call7 = call dereferenceable(1) %"class.std::tuple.3"* @_ZSt7forwardISt5tupleIJEEEOT_RNSt16remove_referenceIS2_E4typeE(%"class.std::tuple.3"* dereferenceable(1) %2) #3
  %call8 = call %"struct.std::_Rb_tree_node"* @_ZNSt8_Rb_treeINSt7__cxx1112basic_stringIcSt11char_traitsIcESaIcEEESt4pairIKS5_dESt10_Select1stIS8_ESt4lessIS5_ESaIS8_EE14_M_create_nodeIJRKSt21piecewise_construct_tSt5tupleIJRS7_EESJ_IJEEEEEPSt13_Rb_tree_nodeIS8_EDpOT_(%"class.std::_Rb_tree"* %this5, %"struct.std::piecewise_construct_t"* dereferenceable(1) %call, %"class.std::tuple"* dereferenceable(8) %call6, %"class.std::tuple.3"* dereferenceable(1) %call7)
  store %"struct.std::_Rb_tree_node"* %call8, %"struct.std::_Rb_tree_node"** %__z, align 8
  %3 = bitcast %"struct.std::_Rb_tree_const_iterator"* %agg.tmp to i8*
  %4 = bitcast %"struct.std::_Rb_tree_const_iterator"* %__pos to i8*
  call void @llvm.memcpy.p0i8.p0i8.i64(i8* align 8 %3, i8* align 8 %4, i64 8, i1 false)
  %5 = load %"struct.std::_Rb_tree_node"*, %"struct.std::_Rb_tree_node"** %__z, align 8
  %call9 = invoke dereferenceable(32) %"class.std::__cxx11::basic_string"* @_ZNSt8_Rb_treeINSt7__cxx1112basic_stringIcSt11char_traitsIcESaIcEEESt4pairIKS5_dESt10_Select1stIS8_ESt4lessIS5_ESaIS8_EE6_S_keyEPKSt13_Rb_tree_nodeIS8_E(%"struct.std::_Rb_tree_node"* %5)
          to label %invoke.cont unwind label %lpad

invoke.cont:                                      ; preds = %entry
  %coerce.dive10 = getelementptr inbounds %"struct.std::_Rb_tree_const_iterator", %"struct.std::_Rb_tree_const_iterator"* %agg.tmp, i32 0, i32 0
  %6 = load %"struct.std::_Rb_tree_node_base"*, %"struct.std::_Rb_tree_node_base"** %coerce.dive10, align 8
  %call12 = invoke { %"struct.std::_Rb_tree_node_base"*, %"struct.std::_Rb_tree_node_base"* } @_ZNSt8_Rb_treeINSt7__cxx1112basic_stringIcSt11char_traitsIcESaIcEEESt4pairIKS5_dESt10_Select1stIS8_ESt4lessIS5_ESaIS8_EE29_M_get_insert_hint_unique_posESt23_Rb_tree_const_iteratorIS8_ERS7_(%"class.std::_Rb_tree"* %this5, %"struct.std::_Rb_tree_node_base"* %6, %"class.std::__cxx11::basic_string"* dereferenceable(32) %call9)
          to label %invoke.cont11 unwind label %lpad

invoke.cont11:                                    ; preds = %invoke.cont
  %7 = bitcast %"struct.std::pair.4"* %__res to { %"struct.std::_Rb_tree_node_base"*, %"struct.std::_Rb_tree_node_base"* }*
  %8 = getelementptr inbounds { %"struct.std::_Rb_tree_node_base"*, %"struct.std::_Rb_tree_node_base"* }, { %"struct.std::_Rb_tree_node_base"*, %"struct.std::_Rb_tree_node_base"* }* %7, i32 0, i32 0
  %9 = extractvalue { %"struct.std::_Rb_tree_node_base"*, %"struct.std::_Rb_tree_node_base"* } %call12, 0
  store %"struct.std::_Rb_tree_node_base"* %9, %"struct.std::_Rb_tree_node_base"** %8, align 8
  %10 = getelementptr inbounds { %"struct.std::_Rb_tree_node_base"*, %"struct.std::_Rb_tree_node_base"* }, { %"struct.std::_Rb_tree_node_base"*, %"struct.std::_Rb_tree_node_base"* }* %7, i32 0, i32 1
  %11 = extractvalue { %"struct.std::_Rb_tree_node_base"*, %"struct.std::_Rb_tree_node_base"* } %call12, 1
  store %"struct.std::_Rb_tree_node_base"* %11, %"struct.std::_Rb_tree_node_base"** %10, align 8
  %second = getelementptr inbounds %"struct.std::pair.4", %"struct.std::pair.4"* %__res, i32 0, i32 1
  %12 = load %"struct.std::_Rb_tree_node_base"*, %"struct.std::_Rb_tree_node_base"** %second, align 8
  %tobool = icmp ne %"struct.std::_Rb_tree_node_base"* %12, null
  br i1 %tobool, label %if.then, label %if.end

if.then:                                          ; preds = %invoke.cont11
  %first = getelementptr inbounds %"struct.std::pair.4", %"struct.std::pair.4"* %__res, i32 0, i32 0
  %13 = load %"struct.std::_Rb_tree_node_base"*, %"struct.std::_Rb_tree_node_base"** %first, align 8
  %second13 = getelementptr inbounds %"struct.std::pair.4", %"struct.std::pair.4"* %__res, i32 0, i32 1
  %14 = load %"struct.std::_Rb_tree_node_base"*, %"struct.std::_Rb_tree_node_base"** %second13, align 8
  %15 = load %"struct.std::_Rb_tree_node"*, %"struct.std::_Rb_tree_node"** %__z, align 8
  %call15 = invoke %"struct.std::_Rb_tree_node_base"* @_ZNSt8_Rb_treeINSt7__cxx1112basic_stringIcSt11char_traitsIcESaIcEEESt4pairIKS5_dESt10_Select1stIS8_ESt4lessIS5_ESaIS8_EE14_M_insert_nodeEPSt18_Rb_tree_node_baseSG_PSt13_Rb_tree_nodeIS8_E(%"class.std::_Rb_tree"* %this5, %"struct.std::_Rb_tree_node_base"* %13, %"struct.std::_Rb_tree_node_base"* %14, %"struct.std::_Rb_tree_node"* %15)
          to label %invoke.cont14 unwind label %lpad

invoke.cont14:                                    ; preds = %if.then
  %coerce.dive16 = getelementptr inbounds %"struct.std::_Rb_tree_iterator", %"struct.std::_Rb_tree_iterator"* %retval, i32 0, i32 0
  store %"struct.std::_Rb_tree_node_base"* %call15, %"struct.std::_Rb_tree_node_base"** %coerce.dive16, align 8
  br label %return

lpad:                                             ; preds = %if.then, %invoke.cont, %entry
  %16 = landingpad { i8*, i32 }
          catch i8* null
  %17 = extractvalue { i8*, i32 } %16, 0
  store i8* %17, i8** %exn.slot, align 8
  %18 = extractvalue { i8*, i32 } %16, 1
  store i32 %18, i32* %ehselector.slot, align 4
  br label %catch

catch:                                            ; preds = %lpad
  %exn = load i8*, i8** %exn.slot, align 8
  %19 = call i8* @__cxa_begin_catch(i8* %exn) #3
  %20 = load %"struct.std::_Rb_tree_node"*, %"struct.std::_Rb_tree_node"** %__z, align 8
  call void @_ZNSt8_Rb_treeINSt7__cxx1112basic_stringIcSt11char_traitsIcESaIcEEESt4pairIKS5_dESt10_Select1stIS8_ESt4lessIS5_ESaIS8_EE12_M_drop_nodeEPSt13_Rb_tree_nodeIS8_E(%"class.std::_Rb_tree"* %this5, %"struct.std::_Rb_tree_node"* %20) #3
  invoke void @__cxa_rethrow() #18
          to label %unreachable unwind label %lpad18

if.end:                                           ; preds = %invoke.cont11
  %21 = load %"struct.std::_Rb_tree_node"*, %"struct.std::_Rb_tree_node"** %__z, align 8
  call void @_ZNSt8_Rb_treeINSt7__cxx1112basic_stringIcSt11char_traitsIcESaIcEEESt4pairIKS5_dESt10_Select1stIS8_ESt4lessIS5_ESaIS8_EE12_M_drop_nodeEPSt13_Rb_tree_nodeIS8_E(%"class.std::_Rb_tree"* %this5, %"struct.std::_Rb_tree_node"* %21) #3
  %first17 = getelementptr inbounds %"struct.std::pair.4", %"struct.std::pair.4"* %__res, i32 0, i32 0
  %22 = load %"struct.std::_Rb_tree_node_base"*, %"struct.std::_Rb_tree_node_base"** %first17, align 8
  %23 = bitcast %"struct.std::_Rb_tree_node_base"* %22 to %"struct.std::_Rb_tree_node"*
  %24 = bitcast %"struct.std::_Rb_tree_node"* %23 to %"struct.std::_Rb_tree_node_base"*
  call void @_ZNSt17_Rb_tree_iteratorISt4pairIKNSt7__cxx1112basic_stringIcSt11char_traitsIcESaIcEEEdEEC2EPSt18_Rb_tree_node_base(%"struct.std::_Rb_tree_iterator"* %retval, %"struct.std::_Rb_tree_node_base"* %24) #3
  br label %return

lpad18:                                           ; preds = %catch
  %25 = landingpad { i8*, i32 }
          cleanup
  %26 = extractvalue { i8*, i32 } %25, 0
  store i8* %26, i8** %exn.slot, align 8
  %27 = extractvalue { i8*, i32 } %25, 1
  store i32 %27, i32* %ehselector.slot, align 4
  invoke void @__cxa_end_catch()
          to label %invoke.cont19 unwind label %terminate.lpad

invoke.cont19:                                    ; preds = %lpad18
  br label %eh.resume

try.cont:                                         ; No predecessors!
  call void @llvm.trap()
  unreachable

return:                                           ; preds = %if.end, %invoke.cont14
  %coerce.dive20 = getelementptr inbounds %"struct.std::_Rb_tree_iterator", %"struct.std::_Rb_tree_iterator"* %retval, i32 0, i32 0
  %28 = load %"struct.std::_Rb_tree_node_base"*, %"struct.std::_Rb_tree_node_base"** %coerce.dive20, align 8
  ret %"struct.std::_Rb_tree_node_base"* %28

eh.resume:                                        ; preds = %invoke.cont19
  %exn21 = load i8*, i8** %exn.slot, align 8
  %sel = load i32, i32* %ehselector.slot, align 4
  %lpad.val = insertvalue { i8*, i32 } undef, i8* %exn21, 0
  %lpad.val22 = insertvalue { i8*, i32 } %lpad.val, i32 %sel, 1
  resume { i8*, i32 } %lpad.val22

terminate.lpad:                                   ; preds = %lpad18
  %29 = landingpad { i8*, i32 }
          catch i8* null
  %30 = extractvalue { i8*, i32 } %29, 0
  call void @__clang_call_terminate(i8* %30) #16
  unreachable

unreachable:                                      ; preds = %catch
  unreachable
}

; Function Attrs: noinline nounwind optnone uwtable
define linkonce_odr dso_local void @_ZNSt23_Rb_tree_const_iteratorISt4pairIKNSt7__cxx1112basic_stringIcSt11char_traitsIcESaIcEEEdEEC2ERKSt17_Rb_tree_iteratorIS8_E(%"struct.std::_Rb_tree_const_iterator"* %this, %"struct.std::_Rb_tree_iterator"* dereferenceable(8) %__it) unnamed_addr #5 comdat align 2 {
entry:
  %this.addr = alloca %"struct.std::_Rb_tree_const_iterator"*, align 8
  %__it.addr = alloca %"struct.std::_Rb_tree_iterator"*, align 8
  store %"struct.std::_Rb_tree_const_iterator"* %this, %"struct.std::_Rb_tree_const_iterator"** %this.addr, align 8
  store %"struct.std::_Rb_tree_iterator"* %__it, %"struct.std::_Rb_tree_iterator"** %__it.addr, align 8
  %this1 = load %"struct.std::_Rb_tree_const_iterator"*, %"struct.std::_Rb_tree_const_iterator"** %this.addr, align 8
  %_M_node = getelementptr inbounds %"struct.std::_Rb_tree_const_iterator", %"struct.std::_Rb_tree_const_iterator"* %this1, i32 0, i32 0
  %0 = load %"struct.std::_Rb_tree_iterator"*, %"struct.std::_Rb_tree_iterator"** %__it.addr, align 8
  %_M_node2 = getelementptr inbounds %"struct.std::_Rb_tree_iterator", %"struct.std::_Rb_tree_iterator"* %0, i32 0, i32 0
  %1 = load %"struct.std::_Rb_tree_node_base"*, %"struct.std::_Rb_tree_node_base"** %_M_node2, align 8
  store %"struct.std::_Rb_tree_node_base"* %1, %"struct.std::_Rb_tree_node_base"** %_M_node, align 8
  ret void
}

; Function Attrs: noinline optnone uwtable
define linkonce_odr dso_local void @_ZNSt5tupleIJRKNSt7__cxx1112basic_stringIcSt11char_traitsIcESaIcEEEEEC2ES7_(%"class.std::tuple"* %this, %"class.std::__cxx11::basic_string"* dereferenceable(32) %__elements) unnamed_addr #6 comdat align 2 {
entry:
  %this.addr = alloca %"class.std::tuple"*, align 8
  %__elements.addr = alloca %"class.std::__cxx11::basic_string"*, align 8
  store %"class.std::tuple"* %this, %"class.std::tuple"** %this.addr, align 8
  store %"class.std::__cxx11::basic_string"* %__elements, %"class.std::__cxx11::basic_string"** %__elements.addr, align 8
  %this1 = load %"class.std::tuple"*, %"class.std::tuple"** %this.addr, align 8
  %0 = bitcast %"class.std::tuple"* %this1 to %"struct.std::_Tuple_impl"*
  %1 = load %"class.std::__cxx11::basic_string"*, %"class.std::__cxx11::basic_string"** %__elements.addr, align 8
  call void @_ZNSt11_Tuple_implILm0EJRKNSt7__cxx1112basic_stringIcSt11char_traitsIcESaIcEEEEEC2ES7_(%"struct.std::_Tuple_impl"* %0, %"class.std::__cxx11::basic_string"* dereferenceable(32) %1)
  ret void
}

; Function Attrs: noinline optnone uwtable
define linkonce_odr dso_local %"struct.std::_Rb_tree_node_base"* @_ZNSt8_Rb_treeINSt7__cxx1112basic_stringIcSt11char_traitsIcESaIcEEESt4pairIKS5_dESt10_Select1stIS8_ESt4lessIS5_ESaIS8_EE11lower_boundERS7_(%"class.std::_Rb_tree"* %this, %"class.std::__cxx11::basic_string"* dereferenceable(32) %__k) #6 comdat align 2 {
entry:
  %retval = alloca %"struct.std::_Rb_tree_iterator", align 8
  %this.addr = alloca %"class.std::_Rb_tree"*, align 8
  %__k.addr = alloca %"class.std::__cxx11::basic_string"*, align 8
  store %"class.std::_Rb_tree"* %this, %"class.std::_Rb_tree"** %this.addr, align 8
  store %"class.std::__cxx11::basic_string"* %__k, %"class.std::__cxx11::basic_string"** %__k.addr, align 8
  %this1 = load %"class.std::_Rb_tree"*, %"class.std::_Rb_tree"** %this.addr, align 8
  %call = call %"struct.std::_Rb_tree_node"* @_ZNSt8_Rb_treeINSt7__cxx1112basic_stringIcSt11char_traitsIcESaIcEEESt4pairIKS5_dESt10_Select1stIS8_ESt4lessIS5_ESaIS8_EE8_M_beginEv(%"class.std::_Rb_tree"* %this1) #3
  %call2 = call %"struct.std::_Rb_tree_node"* @_ZNSt8_Rb_treeINSt7__cxx1112basic_stringIcSt11char_traitsIcESaIcEEESt4pairIKS5_dESt10_Select1stIS8_ESt4lessIS5_ESaIS8_EE6_M_endEv(%"class.std::_Rb_tree"* %this1) #3
  %0 = load %"class.std::__cxx11::basic_string"*, %"class.std::__cxx11::basic_string"** %__k.addr, align 8
  %call3 = call %"struct.std::_Rb_tree_node_base"* @_ZNSt8_Rb_treeINSt7__cxx1112basic_stringIcSt11char_traitsIcESaIcEEESt4pairIKS5_dESt10_Select1stIS8_ESt4lessIS5_ESaIS8_EE14_M_lower_boundEPSt13_Rb_tree_nodeIS8_ESH_RS7_(%"class.std::_Rb_tree"* %this1, %"struct.std::_Rb_tree_node"* %call, %"struct.std::_Rb_tree_node"* %call2, %"class.std::__cxx11::basic_string"* dereferenceable(32) %0)
  %coerce.dive = getelementptr inbounds %"struct.std::_Rb_tree_iterator", %"struct.std::_Rb_tree_iterator"* %retval, i32 0, i32 0
  store %"struct.std::_Rb_tree_node_base"* %call3, %"struct.std::_Rb_tree_node_base"** %coerce.dive, align 8
  %coerce.dive4 = getelementptr inbounds %"struct.std::_Rb_tree_iterator", %"struct.std::_Rb_tree_iterator"* %retval, i32 0, i32 0
  %1 = load %"struct.std::_Rb_tree_node_base"*, %"struct.std::_Rb_tree_node_base"** %coerce.dive4, align 8
  ret %"struct.std::_Rb_tree_node_base"* %1
}

; Function Attrs: noinline optnone uwtable
define linkonce_odr dso_local %"struct.std::_Rb_tree_node_base"* @_ZNSt8_Rb_treeINSt7__cxx1112basic_stringIcSt11char_traitsIcESaIcEEESt4pairIKS5_dESt10_Select1stIS8_ESt4lessIS5_ESaIS8_EE14_M_lower_boundEPSt13_Rb_tree_nodeIS8_ESH_RS7_(%"class.std::_Rb_tree"* %this, %"struct.std::_Rb_tree_node"* %__x, %"struct.std::_Rb_tree_node"* %__y, %"class.std::__cxx11::basic_string"* dereferenceable(32) %__k) #6 comdat align 2 {
entry:
  %retval = alloca %"struct.std::_Rb_tree_iterator", align 8
  %this.addr = alloca %"class.std::_Rb_tree"*, align 8
  %__x.addr = alloca %"struct.std::_Rb_tree_node"*, align 8
  %__y.addr = alloca %"struct.std::_Rb_tree_node"*, align 8
  %__k.addr = alloca %"class.std::__cxx11::basic_string"*, align 8
  store %"class.std::_Rb_tree"* %this, %"class.std::_Rb_tree"** %this.addr, align 8
  store %"struct.std::_Rb_tree_node"* %__x, %"struct.std::_Rb_tree_node"** %__x.addr, align 8
  store %"struct.std::_Rb_tree_node"* %__y, %"struct.std::_Rb_tree_node"** %__y.addr, align 8
  store %"class.std::__cxx11::basic_string"* %__k, %"class.std::__cxx11::basic_string"** %__k.addr, align 8
  %this1 = load %"class.std::_Rb_tree"*, %"class.std::_Rb_tree"** %this.addr, align 8
  br label %while.cond

while.cond:                                       ; preds = %if.end, %entry
  %0 = load %"struct.std::_Rb_tree_node"*, %"struct.std::_Rb_tree_node"** %__x.addr, align 8
  %cmp = icmp ne %"struct.std::_Rb_tree_node"* %0, null
  br i1 %cmp, label %while.body, label %while.end

while.body:                                       ; preds = %while.cond
  %_M_impl = getelementptr inbounds %"class.std::_Rb_tree", %"class.std::_Rb_tree"* %this1, i32 0, i32 0
  %_M_key_compare = getelementptr inbounds %"struct.std::_Rb_tree<std::__cxx11::basic_string<char>, std::pair<const std::__cxx11::basic_string<char>, double>, std::_Select1st<std::pair<const std::__cxx11::basic_string<char>, double> >, std::less<std::__cxx11::basic_string<char> >, std::allocator<std::pair<const std::__cxx11::basic_string<char>, double> > >::_Rb_tree_impl", %"struct.std::_Rb_tree<std::__cxx11::basic_string<char>, std::pair<const std::__cxx11::basic_string<char>, double>, std::_Select1st<std::pair<const std::__cxx11::basic_string<char>, double> >, std::less<std::__cxx11::basic_string<char> >, std::allocator<std::pair<const std::__cxx11::basic_string<char>, double> > >::_Rb_tree_impl"* %_M_impl, i32 0, i32 0
  %1 = load %"struct.std::_Rb_tree_node"*, %"struct.std::_Rb_tree_node"** %__x.addr, align 8
  %call = call dereferenceable(32) %"class.std::__cxx11::basic_string"* @_ZNSt8_Rb_treeINSt7__cxx1112basic_stringIcSt11char_traitsIcESaIcEEESt4pairIKS5_dESt10_Select1stIS8_ESt4lessIS5_ESaIS8_EE6_S_keyEPKSt13_Rb_tree_nodeIS8_E(%"struct.std::_Rb_tree_node"* %1)
  %2 = load %"class.std::__cxx11::basic_string"*, %"class.std::__cxx11::basic_string"** %__k.addr, align 8
  %call2 = call zeroext i1 @_ZNKSt4lessINSt7__cxx1112basic_stringIcSt11char_traitsIcESaIcEEEEclERKS5_S8_(%"struct.std::less"* %_M_key_compare, %"class.std::__cxx11::basic_string"* dereferenceable(32) %call, %"class.std::__cxx11::basic_string"* dereferenceable(32) %2)
  br i1 %call2, label %if.else, label %if.then

if.then:                                          ; preds = %while.body
  %3 = load %"struct.std::_Rb_tree_node"*, %"struct.std::_Rb_tree_node"** %__x.addr, align 8
  store %"struct.std::_Rb_tree_node"* %3, %"struct.std::_Rb_tree_node"** %__y.addr, align 8
  %4 = load %"struct.std::_Rb_tree_node"*, %"struct.std::_Rb_tree_node"** %__x.addr, align 8
  %5 = bitcast %"struct.std::_Rb_tree_node"* %4 to %"struct.std::_Rb_tree_node_base"*
  %call3 = call %"struct.std::_Rb_tree_node"* @_ZNSt8_Rb_treeINSt7__cxx1112basic_stringIcSt11char_traitsIcESaIcEEESt4pairIKS5_dESt10_Select1stIS8_ESt4lessIS5_ESaIS8_EE7_S_leftEPSt18_Rb_tree_node_base(%"struct.std::_Rb_tree_node_base"* %5) #3
  store %"struct.std::_Rb_tree_node"* %call3, %"struct.std::_Rb_tree_node"** %__x.addr, align 8
  br label %if.end

if.else:                                          ; preds = %while.body
  %6 = load %"struct.std::_Rb_tree_node"*, %"struct.std::_Rb_tree_node"** %__x.addr, align 8
  %7 = bitcast %"struct.std::_Rb_tree_node"* %6 to %"struct.std::_Rb_tree_node_base"*
  %call4 = call %"struct.std::_Rb_tree_node"* @_ZNSt8_Rb_treeINSt7__cxx1112basic_stringIcSt11char_traitsIcESaIcEEESt4pairIKS5_dESt10_Select1stIS8_ESt4lessIS5_ESaIS8_EE8_S_rightEPSt18_Rb_tree_node_base(%"struct.std::_Rb_tree_node_base"* %7) #3
  store %"struct.std::_Rb_tree_node"* %call4, %"struct.std::_Rb_tree_node"** %__x.addr, align 8
  br label %if.end

if.end:                                           ; preds = %if.else, %if.then
  br label %while.cond

while.end:                                        ; preds = %while.cond
  %8 = load %"struct.std::_Rb_tree_node"*, %"struct.std::_Rb_tree_node"** %__y.addr, align 8
  %9 = bitcast %"struct.std::_Rb_tree_node"* %8 to %"struct.std::_Rb_tree_node_base"*
  call void @_ZNSt17_Rb_tree_iteratorISt4pairIKNSt7__cxx1112basic_stringIcSt11char_traitsIcESaIcEEEdEEC2EPSt18_Rb_tree_node_base(%"struct.std::_Rb_tree_iterator"* %retval, %"struct.std::_Rb_tree_node_base"* %9) #3
  %coerce.dive = getelementptr inbounds %"struct.std::_Rb_tree_iterator", %"struct.std::_Rb_tree_iterator"* %retval, i32 0, i32 0
  %10 = load %"struct.std::_Rb_tree_node_base"*, %"struct.std::_Rb_tree_node_base"** %coerce.dive, align 8
  ret %"struct.std::_Rb_tree_node_base"* %10
}

; Function Attrs: noinline nounwind optnone uwtable
define linkonce_odr dso_local %"struct.std::_Rb_tree_node"* @_ZNSt8_Rb_treeINSt7__cxx1112basic_stringIcSt11char_traitsIcESaIcEEESt4pairIKS5_dESt10_Select1stIS8_ESt4lessIS5_ESaIS8_EE8_M_beginEv(%"class.std::_Rb_tree"* %this) #5 comdat align 2 {
entry:
  %this.addr = alloca %"class.std::_Rb_tree"*, align 8
  store %"class.std::_Rb_tree"* %this, %"class.std::_Rb_tree"** %this.addr, align 8
  %this1 = load %"class.std::_Rb_tree"*, %"class.std::_Rb_tree"** %this.addr, align 8
  %_M_impl = getelementptr inbounds %"class.std::_Rb_tree", %"class.std::_Rb_tree"* %this1, i32 0, i32 0
  %_M_header = getelementptr inbounds %"struct.std::_Rb_tree<std::__cxx11::basic_string<char>, std::pair<const std::__cxx11::basic_string<char>, double>, std::_Select1st<std::pair<const std::__cxx11::basic_string<char>, double> >, std::less<std::__cxx11::basic_string<char> >, std::allocator<std::pair<const std::__cxx11::basic_string<char>, double> > >::_Rb_tree_impl", %"struct.std::_Rb_tree<std::__cxx11::basic_string<char>, std::pair<const std::__cxx11::basic_string<char>, double>, std::_Select1st<std::pair<const std::__cxx11::basic_string<char>, double> >, std::less<std::__cxx11::basic_string<char> >, std::allocator<std::pair<const std::__cxx11::basic_string<char>, double> > >::_Rb_tree_impl"* %_M_impl, i32 0, i32 1
  %_M_parent = getelementptr inbounds %"struct.std::_Rb_tree_node_base", %"struct.std::_Rb_tree_node_base"* %_M_header, i32 0, i32 1
  %0 = load %"struct.std::_Rb_tree_node_base"*, %"struct.std::_Rb_tree_node_base"** %_M_parent, align 8
  %1 = bitcast %"struct.std::_Rb_tree_node_base"* %0 to %"struct.std::_Rb_tree_node"*
  ret %"struct.std::_Rb_tree_node"* %1
}

; Function Attrs: noinline nounwind optnone uwtable
define linkonce_odr dso_local %"struct.std::_Rb_tree_node"* @_ZNSt8_Rb_treeINSt7__cxx1112basic_stringIcSt11char_traitsIcESaIcEEESt4pairIKS5_dESt10_Select1stIS8_ESt4lessIS5_ESaIS8_EE6_M_endEv(%"class.std::_Rb_tree"* %this) #5 comdat align 2 {
entry:
  %this.addr = alloca %"class.std::_Rb_tree"*, align 8
  store %"class.std::_Rb_tree"* %this, %"class.std::_Rb_tree"** %this.addr, align 8
  %this1 = load %"class.std::_Rb_tree"*, %"class.std::_Rb_tree"** %this.addr, align 8
  %_M_impl = getelementptr inbounds %"class.std::_Rb_tree", %"class.std::_Rb_tree"* %this1, i32 0, i32 0
  %_M_header = getelementptr inbounds %"struct.std::_Rb_tree<std::__cxx11::basic_string<char>, std::pair<const std::__cxx11::basic_string<char>, double>, std::_Select1st<std::pair<const std::__cxx11::basic_string<char>, double> >, std::less<std::__cxx11::basic_string<char> >, std::allocator<std::pair<const std::__cxx11::basic_string<char>, double> > >::_Rb_tree_impl", %"struct.std::_Rb_tree<std::__cxx11::basic_string<char>, std::pair<const std::__cxx11::basic_string<char>, double>, std::_Select1st<std::pair<const std::__cxx11::basic_string<char>, double> >, std::less<std::__cxx11::basic_string<char> >, std::allocator<std::pair<const std::__cxx11::basic_string<char>, double> > >::_Rb_tree_impl"* %_M_impl, i32 0, i32 1
  %0 = bitcast %"struct.std::_Rb_tree_node_base"* %_M_header to %"struct.std::_Rb_tree_node"*
  ret %"struct.std::_Rb_tree_node"* %0
}

; Function Attrs: noinline nounwind optnone uwtable
define linkonce_odr dso_local %"struct.std::_Rb_tree_node"* @_ZNSt8_Rb_treeINSt7__cxx1112basic_stringIcSt11char_traitsIcESaIcEEESt4pairIKS5_dESt10_Select1stIS8_ESt4lessIS5_ESaIS8_EE7_S_leftEPSt18_Rb_tree_node_base(%"struct.std::_Rb_tree_node_base"* %__x) #5 comdat align 2 {
entry:
  %__x.addr = alloca %"struct.std::_Rb_tree_node_base"*, align 8
  store %"struct.std::_Rb_tree_node_base"* %__x, %"struct.std::_Rb_tree_node_base"** %__x.addr, align 8
  %0 = load %"struct.std::_Rb_tree_node_base"*, %"struct.std::_Rb_tree_node_base"** %__x.addr, align 8
  %_M_left = getelementptr inbounds %"struct.std::_Rb_tree_node_base", %"struct.std::_Rb_tree_node_base"* %0, i32 0, i32 2
  %1 = load %"struct.std::_Rb_tree_node_base"*, %"struct.std::_Rb_tree_node_base"** %_M_left, align 8
  %2 = bitcast %"struct.std::_Rb_tree_node_base"* %1 to %"struct.std::_Rb_tree_node"*
  ret %"struct.std::_Rb_tree_node"* %2
}

; Function Attrs: noinline nounwind optnone uwtable
define linkonce_odr dso_local %"struct.std::_Rb_tree_node"* @_ZNSt8_Rb_treeINSt7__cxx1112basic_stringIcSt11char_traitsIcESaIcEEESt4pairIKS5_dESt10_Select1stIS8_ESt4lessIS5_ESaIS8_EE8_S_rightEPSt18_Rb_tree_node_base(%"struct.std::_Rb_tree_node_base"* %__x) #5 comdat align 2 {
entry:
  %__x.addr = alloca %"struct.std::_Rb_tree_node_base"*, align 8
  store %"struct.std::_Rb_tree_node_base"* %__x, %"struct.std::_Rb_tree_node_base"** %__x.addr, align 8
  %0 = load %"struct.std::_Rb_tree_node_base"*, %"struct.std::_Rb_tree_node_base"** %__x.addr, align 8
  %_M_right = getelementptr inbounds %"struct.std::_Rb_tree_node_base", %"struct.std::_Rb_tree_node_base"* %0, i32 0, i32 3
  %1 = load %"struct.std::_Rb_tree_node_base"*, %"struct.std::_Rb_tree_node_base"** %_M_right, align 8
  %2 = bitcast %"struct.std::_Rb_tree_node_base"* %1 to %"struct.std::_Rb_tree_node"*
  ret %"struct.std::_Rb_tree_node"* %2
}

; Function Attrs: noinline nounwind optnone uwtable
define linkonce_odr dso_local void @_ZNSt17_Rb_tree_iteratorISt4pairIKNSt7__cxx1112basic_stringIcSt11char_traitsIcESaIcEEEdEEC2EPSt18_Rb_tree_node_base(%"struct.std::_Rb_tree_iterator"* %this, %"struct.std::_Rb_tree_node_base"* %__x) unnamed_addr #5 comdat align 2 {
entry:
  %this.addr = alloca %"struct.std::_Rb_tree_iterator"*, align 8
  %__x.addr = alloca %"struct.std::_Rb_tree_node_base"*, align 8
  store %"struct.std::_Rb_tree_iterator"* %this, %"struct.std::_Rb_tree_iterator"** %this.addr, align 8
  store %"struct.std::_Rb_tree_node_base"* %__x, %"struct.std::_Rb_tree_node_base"** %__x.addr, align 8
  %this1 = load %"struct.std::_Rb_tree_iterator"*, %"struct.std::_Rb_tree_iterator"** %this.addr, align 8
  %_M_node = getelementptr inbounds %"struct.std::_Rb_tree_iterator", %"struct.std::_Rb_tree_iterator"* %this1, i32 0, i32 0
  %0 = load %"struct.std::_Rb_tree_node_base"*, %"struct.std::_Rb_tree_node_base"** %__x.addr, align 8
